Archive member included because of file (symbol)

/opt/altera/13.0sp1/nios2eds/bin/gnu/H-i686-pc-linux-gnu/bin/../lib/gcc/nios2-elf/4.1.2/mno-hw-mul/libgcc.a(_div_df.o)
                              obj/default/src_0/cpu_0.o (__divdf3)
/opt/altera/13.0sp1/nios2eds/bin/gnu/H-i686-pc-linux-gnu/bin/../lib/gcc/nios2-elf/4.1.2/mno-hw-mul/libgcc.a(_thenan_df.o)
                              /opt/altera/13.0sp1/nios2eds/bin/gnu/H-i686-pc-linux-gnu/bin/../lib/gcc/nios2-elf/4.1.2/mno-hw-mul/libgcc.a(_div_df.o) (__thenan_df)
/opt/altera/13.0sp1/nios2eds/bin/gnu/H-i686-pc-linux-gnu/bin/../lib/gcc/nios2-elf/4.1.2/mno-hw-mul/libgcc.a(_usi_to_df.o)
                              obj/default/src_0/cpu_0.o (__floatunsidf)
/opt/altera/13.0sp1/nios2eds/bin/gnu/H-i686-pc-linux-gnu/bin/../lib/gcc/nios2-elf/4.1.2/mno-hw-mul/libgcc.a(lib2-divmod.o)
                              obj/default/src_0/cpu_0.o (__divsi3)
/opt/altera/13.0sp1/nios2eds/bin/gnu/H-i686-pc-linux-gnu/bin/../lib/gcc/nios2-elf/4.1.2/mno-hw-mul/libgcc.a(lib2-mul.o)
                              obj/default/src_0/cpu_0.o (__mulsi3)
/opt/altera/13.0sp1/nios2eds/bin/gnu/H-i686-pc-linux-gnu/bin/../lib/gcc/nios2-elf/4.1.2/mno-hw-mul/libgcc.a(_clzsi2.o)
                              /opt/altera/13.0sp1/nios2eds/bin/gnu/H-i686-pc-linux-gnu/bin/../lib/gcc/nios2-elf/4.1.2/mno-hw-mul/libgcc.a(_usi_to_df.o) (__clzsi2)
/opt/altera/13.0sp1/nios2eds/bin/gnu/H-i686-pc-linux-gnu/bin/../lib/gcc/nios2-elf/4.1.2/mno-hw-mul/libgcc.a(_pack_df.o)
                              /opt/altera/13.0sp1/nios2eds/bin/gnu/H-i686-pc-linux-gnu/bin/../lib/gcc/nios2-elf/4.1.2/mno-hw-mul/libgcc.a(_div_df.o) (__pack_d)
/opt/altera/13.0sp1/nios2eds/bin/gnu/H-i686-pc-linux-gnu/bin/../lib/gcc/nios2-elf/4.1.2/mno-hw-mul/libgcc.a(_unpack_df.o)
                              /opt/altera/13.0sp1/nios2eds/bin/gnu/H-i686-pc-linux-gnu/bin/../lib/gcc/nios2-elf/4.1.2/mno-hw-mul/libgcc.a(_div_df.o) (__unpack_d)
/opt/altera/13.0sp1/nios2eds/bin/gnu/H-i686-pc-linux-gnu/bin/../lib/gcc/nios2-elf/4.1.2/mno-hw-mul/libgcc.a(_clz.o)
                              /opt/altera/13.0sp1/nios2eds/bin/gnu/H-i686-pc-linux-gnu/bin/../lib/gcc/nios2-elf/4.1.2/mno-hw-mul/libgcc.a(_clzsi2.o) (__clz_tab)
/opt/altera/13.0sp1/nios2eds/bin/gnu/H-i686-pc-linux-gnu/bin/../lib/gcc/nios2-elf/4.1.2/../../../../nios2-elf/lib/mno-hw-mul/libc.a(lib_a-printf.o)
                              obj/default/src_0/cpu_0.o (printf)
/opt/altera/13.0sp1/nios2eds/bin/gnu/H-i686-pc-linux-gnu/bin/../lib/gcc/nios2-elf/4.1.2/../../../../nios2-elf/lib/mno-hw-mul/libc.a(lib_a-putchar.o)
                              obj/default/src_0/cpu_0.o (putchar)
/opt/altera/13.0sp1/nios2eds/bin/gnu/H-i686-pc-linux-gnu/bin/../lib/gcc/nios2-elf/4.1.2/../../../../nios2-elf/lib/mno-hw-mul/libc.a(lib_a-puts.o)
                              obj/default/src_0/cpu_0.o (puts)
/opt/altera/13.0sp1/nios2eds/bin/gnu/H-i686-pc-linux-gnu/bin/../lib/gcc/nios2-elf/4.1.2/../../../../nios2-elf/lib/mno-hw-mul/libc.a(lib_a-strlen.o)
                              /opt/altera/13.0sp1/nios2eds/bin/gnu/H-i686-pc-linux-gnu/bin/../lib/gcc/nios2-elf/4.1.2/../../../../nios2-elf/lib/mno-hw-mul/libc.a(lib_a-puts.o) (strlen)
/opt/altera/13.0sp1/nios2eds/bin/gnu/H-i686-pc-linux-gnu/bin/../lib/gcc/nios2-elf/4.1.2/../../../../nios2-elf/lib/mno-hw-mul/libc.a(lib_a-vfprintf.o)
                              /opt/altera/13.0sp1/nios2eds/bin/gnu/H-i686-pc-linux-gnu/bin/../lib/gcc/nios2-elf/4.1.2/../../../../nios2-elf/lib/mno-hw-mul/libc.a(lib_a-printf.o) (___vfprintf_internal_r)
/opt/altera/13.0sp1/nios2eds/bin/gnu/H-i686-pc-linux-gnu/bin/../lib/gcc/nios2-elf/4.1.2/../../../../nios2-elf/lib/mno-hw-mul/libc.a(lib_a-wsetup.o)
                              /opt/altera/13.0sp1/nios2eds/bin/gnu/H-i686-pc-linux-gnu/bin/../lib/gcc/nios2-elf/4.1.2/../../../../nios2-elf/lib/mno-hw-mul/libc.a(lib_a-vfprintf.o) (__swsetup_r)
/opt/altera/13.0sp1/nios2eds/bin/gnu/H-i686-pc-linux-gnu/bin/../lib/gcc/nios2-elf/4.1.2/../../../../nios2-elf/lib/mno-hw-mul/libc.a(lib_a-dtoa.o)
                              /opt/altera/13.0sp1/nios2eds/bin/gnu/H-i686-pc-linux-gnu/bin/../lib/gcc/nios2-elf/4.1.2/../../../../nios2-elf/lib/mno-hw-mul/libc.a(lib_a-vfprintf.o) (_dtoa_r)
/opt/altera/13.0sp1/nios2eds/bin/gnu/H-i686-pc-linux-gnu/bin/../lib/gcc/nios2-elf/4.1.2/../../../../nios2-elf/lib/mno-hw-mul/libc.a(lib_a-fflush.o)
                              /opt/altera/13.0sp1/nios2eds/bin/gnu/H-i686-pc-linux-gnu/bin/../lib/gcc/nios2-elf/4.1.2/../../../../nios2-elf/lib/mno-hw-mul/libc.a(lib_a-vfprintf.o) (_fflush_r)
/opt/altera/13.0sp1/nios2eds/bin/gnu/H-i686-pc-linux-gnu/bin/../lib/gcc/nios2-elf/4.1.2/../../../../nios2-elf/lib/mno-hw-mul/libc.a(lib_a-findfp.o)
                              /opt/altera/13.0sp1/nios2eds/bin/gnu/H-i686-pc-linux-gnu/bin/../lib/gcc/nios2-elf/4.1.2/../../../../nios2-elf/lib/mno-hw-mul/libc.a(lib_a-vfprintf.o) (__sinit)
/opt/altera/13.0sp1/nios2eds/bin/gnu/H-i686-pc-linux-gnu/bin/../lib/gcc/nios2-elf/4.1.2/../../../../nios2-elf/lib/mno-hw-mul/libc.a(lib_a-freer.o)
                              /opt/altera/13.0sp1/nios2eds/bin/gnu/H-i686-pc-linux-gnu/bin/../lib/gcc/nios2-elf/4.1.2/../../../../nios2-elf/lib/mno-hw-mul/libc.a(lib_a-wsetup.o) (_free_r)
/opt/altera/13.0sp1/nios2eds/bin/gnu/H-i686-pc-linux-gnu/bin/../lib/gcc/nios2-elf/4.1.2/../../../../nios2-elf/lib/mno-hw-mul/libc.a(lib_a-fvwrite.o)
                              /opt/altera/13.0sp1/nios2eds/bin/gnu/H-i686-pc-linux-gnu/bin/../lib/gcc/nios2-elf/4.1.2/../../../../nios2-elf/lib/mno-hw-mul/libc.a(lib_a-puts.o) (__sfvwrite_r)
/opt/altera/13.0sp1/nios2eds/bin/gnu/H-i686-pc-linux-gnu/bin/../lib/gcc/nios2-elf/4.1.2/../../../../nios2-elf/lib/mno-hw-mul/libc.a(lib_a-fwalk.o)
                              /opt/altera/13.0sp1/nios2eds/bin/gnu/H-i686-pc-linux-gnu/bin/../lib/gcc/nios2-elf/4.1.2/../../../../nios2-elf/lib/mno-hw-mul/libc.a(lib_a-fflush.o) (_fwalk_reent)
/opt/altera/13.0sp1/nios2eds/bin/gnu/H-i686-pc-linux-gnu/bin/../lib/gcc/nios2-elf/4.1.2/../../../../nios2-elf/lib/mno-hw-mul/libc.a(lib_a-impure.o)
                              /opt/altera/13.0sp1/nios2eds/bin/gnu/H-i686-pc-linux-gnu/bin/../lib/gcc/nios2-elf/4.1.2/../../../../nios2-elf/lib/mno-hw-mul/libc.a(lib_a-printf.o) (_impure_ptr)
/opt/altera/13.0sp1/nios2eds/bin/gnu/H-i686-pc-linux-gnu/bin/../lib/gcc/nios2-elf/4.1.2/../../../../nios2-elf/lib/mno-hw-mul/libc.a(lib_a-locale.o)
                              /opt/altera/13.0sp1/nios2eds/bin/gnu/H-i686-pc-linux-gnu/bin/../lib/gcc/nios2-elf/4.1.2/../../../../nios2-elf/lib/mno-hw-mul/libc.a(lib_a-vfprintf.o) (_localeconv_r)
/opt/altera/13.0sp1/nios2eds/bin/gnu/H-i686-pc-linux-gnu/bin/../lib/gcc/nios2-elf/4.1.2/../../../../nios2-elf/lib/mno-hw-mul/libc.a(lib_a-makebuf.o)
                              /opt/altera/13.0sp1/nios2eds/bin/gnu/H-i686-pc-linux-gnu/bin/../lib/gcc/nios2-elf/4.1.2/../../../../nios2-elf/lib/mno-hw-mul/libc.a(lib_a-wsetup.o) (__smakebuf_r)
/opt/altera/13.0sp1/nios2eds/bin/gnu/H-i686-pc-linux-gnu/bin/../lib/gcc/nios2-elf/4.1.2/../../../../nios2-elf/lib/mno-hw-mul/libc.a(lib_a-mallocr.o)
                              /opt/altera/13.0sp1/nios2eds/bin/gnu/H-i686-pc-linux-gnu/bin/../lib/gcc/nios2-elf/4.1.2/../../../../nios2-elf/lib/mno-hw-mul/libc.a(lib_a-findfp.o) (_malloc_r)
/opt/altera/13.0sp1/nios2eds/bin/gnu/H-i686-pc-linux-gnu/bin/../lib/gcc/nios2-elf/4.1.2/../../../../nios2-elf/lib/mno-hw-mul/libc.a(lib_a-memchr.o)
                              /opt/altera/13.0sp1/nios2eds/bin/gnu/H-i686-pc-linux-gnu/bin/../lib/gcc/nios2-elf/4.1.2/../../../../nios2-elf/lib/mno-hw-mul/libc.a(lib_a-vfprintf.o) (memchr)
/opt/altera/13.0sp1/nios2eds/bin/gnu/H-i686-pc-linux-gnu/bin/../lib/gcc/nios2-elf/4.1.2/../../../../nios2-elf/lib/mno-hw-mul/libc.a(lib_a-memcpy.o)
                              /opt/altera/13.0sp1/nios2eds/bin/gnu/H-i686-pc-linux-gnu/bin/../lib/gcc/nios2-elf/4.1.2/../../../../nios2-elf/lib/mno-hw-mul/libc.a(lib_a-dtoa.o) (memcpy)
/opt/altera/13.0sp1/nios2eds/bin/gnu/H-i686-pc-linux-gnu/bin/../lib/gcc/nios2-elf/4.1.2/../../../../nios2-elf/lib/mno-hw-mul/libc.a(lib_a-memmove.o)
                              /opt/altera/13.0sp1/nios2eds/bin/gnu/H-i686-pc-linux-gnu/bin/../lib/gcc/nios2-elf/4.1.2/../../../../nios2-elf/lib/mno-hw-mul/libc.a(lib_a-fvwrite.o) (memmove)
/opt/altera/13.0sp1/nios2eds/bin/gnu/H-i686-pc-linux-gnu/bin/../lib/gcc/nios2-elf/4.1.2/../../../../nios2-elf/lib/mno-hw-mul/libc.a(lib_a-memset.o)
                              /opt/altera/13.0sp1/nios2eds/bin/gnu/H-i686-pc-linux-gnu/bin/../lib/gcc/nios2-elf/4.1.2/../../../../nios2-elf/lib/mno-hw-mul/libc.a(lib_a-findfp.o) (memset)
/opt/altera/13.0sp1/nios2eds/bin/gnu/H-i686-pc-linux-gnu/bin/../lib/gcc/nios2-elf/4.1.2/../../../../nios2-elf/lib/mno-hw-mul/libc.a(lib_a-mprec.o)
                              /opt/altera/13.0sp1/nios2eds/bin/gnu/H-i686-pc-linux-gnu/bin/../lib/gcc/nios2-elf/4.1.2/../../../../nios2-elf/lib/mno-hw-mul/libc.a(lib_a-dtoa.o) (_Bfree)
/opt/altera/13.0sp1/nios2eds/bin/gnu/H-i686-pc-linux-gnu/bin/../lib/gcc/nios2-elf/4.1.2/../../../../nios2-elf/lib/mno-hw-mul/libc.a(lib_a-putc.o)
                              /opt/altera/13.0sp1/nios2eds/bin/gnu/H-i686-pc-linux-gnu/bin/../lib/gcc/nios2-elf/4.1.2/../../../../nios2-elf/lib/mno-hw-mul/libc.a(lib_a-putchar.o) (_putc_r)
/opt/altera/13.0sp1/nios2eds/bin/gnu/H-i686-pc-linux-gnu/bin/../lib/gcc/nios2-elf/4.1.2/../../../../nios2-elf/lib/mno-hw-mul/libc.a(lib_a-reallocr.o)
                              /opt/altera/13.0sp1/nios2eds/bin/gnu/H-i686-pc-linux-gnu/bin/../lib/gcc/nios2-elf/4.1.2/../../../../nios2-elf/lib/mno-hw-mul/libc.a(lib_a-fvwrite.o) (_realloc_r)
/opt/altera/13.0sp1/nios2eds/bin/gnu/H-i686-pc-linux-gnu/bin/../lib/gcc/nios2-elf/4.1.2/../../../../nios2-elf/lib/mno-hw-mul/libc.a(lib_a-s_isinfd.o)
                              /opt/altera/13.0sp1/nios2eds/bin/gnu/H-i686-pc-linux-gnu/bin/../lib/gcc/nios2-elf/4.1.2/../../../../nios2-elf/lib/mno-hw-mul/libc.a(lib_a-vfprintf.o) (__isinfd)
/opt/altera/13.0sp1/nios2eds/bin/gnu/H-i686-pc-linux-gnu/bin/../lib/gcc/nios2-elf/4.1.2/../../../../nios2-elf/lib/mno-hw-mul/libc.a(lib_a-s_isnand.o)
                              /opt/altera/13.0sp1/nios2eds/bin/gnu/H-i686-pc-linux-gnu/bin/../lib/gcc/nios2-elf/4.1.2/../../../../nios2-elf/lib/mno-hw-mul/libc.a(lib_a-vfprintf.o) (__isnand)
/opt/altera/13.0sp1/nios2eds/bin/gnu/H-i686-pc-linux-gnu/bin/../lib/gcc/nios2-elf/4.1.2/../../../../nios2-elf/lib/mno-hw-mul/libc.a(lib_a-sbrkr.o)
                              /opt/altera/13.0sp1/nios2eds/bin/gnu/H-i686-pc-linux-gnu/bin/../lib/gcc/nios2-elf/4.1.2/../../../../nios2-elf/lib/mno-hw-mul/libc.a(lib_a-freer.o) (_sbrk_r)
/opt/altera/13.0sp1/nios2eds/bin/gnu/H-i686-pc-linux-gnu/bin/../lib/gcc/nios2-elf/4.1.2/../../../../nios2-elf/lib/mno-hw-mul/libc.a(lib_a-stdio.o)
                              /opt/altera/13.0sp1/nios2eds/bin/gnu/H-i686-pc-linux-gnu/bin/../lib/gcc/nios2-elf/4.1.2/../../../../nios2-elf/lib/mno-hw-mul/libc.a(lib_a-findfp.o) (__sclose)
/opt/altera/13.0sp1/nios2eds/bin/gnu/H-i686-pc-linux-gnu/bin/../lib/gcc/nios2-elf/4.1.2/../../../../nios2-elf/lib/mno-hw-mul/libc.a(lib_a-strcmp.o)
                              /opt/altera/13.0sp1/nios2eds/bin/gnu/H-i686-pc-linux-gnu/bin/../lib/gcc/nios2-elf/4.1.2/../../../../nios2-elf/lib/mno-hw-mul/libc.a(lib_a-locale.o) (strcmp)
/opt/altera/13.0sp1/nios2eds/bin/gnu/H-i686-pc-linux-gnu/bin/../lib/gcc/nios2-elf/4.1.2/../../../../nios2-elf/lib/mno-hw-mul/libc.a(lib_a-wbuf.o)
                              /opt/altera/13.0sp1/nios2eds/bin/gnu/H-i686-pc-linux-gnu/bin/../lib/gcc/nios2-elf/4.1.2/../../../../nios2-elf/lib/mno-hw-mul/libc.a(lib_a-putc.o) (__swbuf_r)
/opt/altera/13.0sp1/nios2eds/bin/gnu/H-i686-pc-linux-gnu/bin/../lib/gcc/nios2-elf/4.1.2/../../../../nios2-elf/lib/mno-hw-mul/libc.a(lib_a-writer.o)
                              /opt/altera/13.0sp1/nios2eds/bin/gnu/H-i686-pc-linux-gnu/bin/../lib/gcc/nios2-elf/4.1.2/../../../../nios2-elf/lib/mno-hw-mul/libc.a(lib_a-stdio.o) (_write_r)
/opt/altera/13.0sp1/nios2eds/bin/gnu/H-i686-pc-linux-gnu/bin/../lib/gcc/nios2-elf/4.1.2/../../../../nios2-elf/lib/mno-hw-mul/libc.a(lib_a-callocr.o)
                              /opt/altera/13.0sp1/nios2eds/bin/gnu/H-i686-pc-linux-gnu/bin/../lib/gcc/nios2-elf/4.1.2/../../../../nios2-elf/lib/mno-hw-mul/libc.a(lib_a-mprec.o) (_calloc_r)
/opt/altera/13.0sp1/nios2eds/bin/gnu/H-i686-pc-linux-gnu/bin/../lib/gcc/nios2-elf/4.1.2/../../../../nios2-elf/lib/mno-hw-mul/libc.a(lib_a-closer.o)
                              /opt/altera/13.0sp1/nios2eds/bin/gnu/H-i686-pc-linux-gnu/bin/../lib/gcc/nios2-elf/4.1.2/../../../../nios2-elf/lib/mno-hw-mul/libc.a(lib_a-stdio.o) (_close_r)
/opt/altera/13.0sp1/nios2eds/bin/gnu/H-i686-pc-linux-gnu/bin/../lib/gcc/nios2-elf/4.1.2/../../../../nios2-elf/lib/mno-hw-mul/libc.a(lib_a-fclose.o)
                              /opt/altera/13.0sp1/nios2eds/bin/gnu/H-i686-pc-linux-gnu/bin/../lib/gcc/nios2-elf/4.1.2/../../../../nios2-elf/lib/mno-hw-mul/libc.a(lib_a-findfp.o) (fclose)
/opt/altera/13.0sp1/nios2eds/bin/gnu/H-i686-pc-linux-gnu/bin/../lib/gcc/nios2-elf/4.1.2/../../../../nios2-elf/lib/mno-hw-mul/libc.a(lib_a-fstatr.o)
                              /opt/altera/13.0sp1/nios2eds/bin/gnu/H-i686-pc-linux-gnu/bin/../lib/gcc/nios2-elf/4.1.2/../../../../nios2-elf/lib/mno-hw-mul/libc.a(lib_a-makebuf.o) (_fstat_r)
/opt/altera/13.0sp1/nios2eds/bin/gnu/H-i686-pc-linux-gnu/bin/../lib/gcc/nios2-elf/4.1.2/../../../../nios2-elf/lib/mno-hw-mul/libc.a(lib_a-int_errno.o)
                              /opt/altera/13.0sp1/nios2eds/bin/gnu/H-i686-pc-linux-gnu/bin/../lib/gcc/nios2-elf/4.1.2/../../../../nios2-elf/lib/mno-hw-mul/libc.a(lib_a-sbrkr.o) (errno)
/opt/altera/13.0sp1/nios2eds/bin/gnu/H-i686-pc-linux-gnu/bin/../lib/gcc/nios2-elf/4.1.2/../../../../nios2-elf/lib/mno-hw-mul/libc.a(lib_a-isattyr.o)
                              /opt/altera/13.0sp1/nios2eds/bin/gnu/H-i686-pc-linux-gnu/bin/../lib/gcc/nios2-elf/4.1.2/../../../../nios2-elf/lib/mno-hw-mul/libc.a(lib_a-makebuf.o) (_isatty_r)
/opt/altera/13.0sp1/nios2eds/bin/gnu/H-i686-pc-linux-gnu/bin/../lib/gcc/nios2-elf/4.1.2/../../../../nios2-elf/lib/mno-hw-mul/libc.a(lib_a-lseekr.o)
                              /opt/altera/13.0sp1/nios2eds/bin/gnu/H-i686-pc-linux-gnu/bin/../lib/gcc/nios2-elf/4.1.2/../../../../nios2-elf/lib/mno-hw-mul/libc.a(lib_a-stdio.o) (_lseek_r)
/opt/altera/13.0sp1/nios2eds/bin/gnu/H-i686-pc-linux-gnu/bin/../lib/gcc/nios2-elf/4.1.2/../../../../nios2-elf/lib/mno-hw-mul/libc.a(lib_a-readr.o)
                              /opt/altera/13.0sp1/nios2eds/bin/gnu/H-i686-pc-linux-gnu/bin/../lib/gcc/nios2-elf/4.1.2/../../../../nios2-elf/lib/mno-hw-mul/libc.a(lib_a-stdio.o) (_read_r)
/opt/altera/13.0sp1/nios2eds/bin/gnu/H-i686-pc-linux-gnu/bin/../lib/gcc/nios2-elf/4.1.2/mno-hw-mul/libgcc.a(_udivdi3.o)
                              /opt/altera/13.0sp1/nios2eds/bin/gnu/H-i686-pc-linux-gnu/bin/../lib/gcc/nios2-elf/4.1.2/../../../../nios2-elf/lib/mno-hw-mul/libc.a(lib_a-vfprintf.o) (__udivdi3)
/opt/altera/13.0sp1/nios2eds/bin/gnu/H-i686-pc-linux-gnu/bin/../lib/gcc/nios2-elf/4.1.2/mno-hw-mul/libgcc.a(_umoddi3.o)
                              /opt/altera/13.0sp1/nios2eds/bin/gnu/H-i686-pc-linux-gnu/bin/../lib/gcc/nios2-elf/4.1.2/../../../../nios2-elf/lib/mno-hw-mul/libc.a(lib_a-vfprintf.o) (__umoddi3)
/opt/altera/13.0sp1/nios2eds/bin/gnu/H-i686-pc-linux-gnu/bin/../lib/gcc/nios2-elf/4.1.2/mno-hw-mul/libgcc.a(_addsub_df.o)
                              /opt/altera/13.0sp1/nios2eds/bin/gnu/H-i686-pc-linux-gnu/bin/../lib/gcc/nios2-elf/4.1.2/../../../../nios2-elf/lib/mno-hw-mul/libc.a(lib_a-dtoa.o) (__subdf3)
/opt/altera/13.0sp1/nios2eds/bin/gnu/H-i686-pc-linux-gnu/bin/../lib/gcc/nios2-elf/4.1.2/mno-hw-mul/libgcc.a(_mul_df.o)
                              /opt/altera/13.0sp1/nios2eds/bin/gnu/H-i686-pc-linux-gnu/bin/../lib/gcc/nios2-elf/4.1.2/../../../../nios2-elf/lib/mno-hw-mul/libc.a(lib_a-dtoa.o) (__muldf3)
/opt/altera/13.0sp1/nios2eds/bin/gnu/H-i686-pc-linux-gnu/bin/../lib/gcc/nios2-elf/4.1.2/mno-hw-mul/libgcc.a(_eq_df.o)
                              /opt/altera/13.0sp1/nios2eds/bin/gnu/H-i686-pc-linux-gnu/bin/../lib/gcc/nios2-elf/4.1.2/../../../../nios2-elf/lib/mno-hw-mul/libc.a(lib_a-vfprintf.o) (__eqdf2)
/opt/altera/13.0sp1/nios2eds/bin/gnu/H-i686-pc-linux-gnu/bin/../lib/gcc/nios2-elf/4.1.2/mno-hw-mul/libgcc.a(_ne_df.o)
                              /opt/altera/13.0sp1/nios2eds/bin/gnu/H-i686-pc-linux-gnu/bin/../lib/gcc/nios2-elf/4.1.2/../../../../nios2-elf/lib/mno-hw-mul/libc.a(lib_a-vfprintf.o) (__nedf2)
/opt/altera/13.0sp1/nios2eds/bin/gnu/H-i686-pc-linux-gnu/bin/../lib/gcc/nios2-elf/4.1.2/mno-hw-mul/libgcc.a(_gt_df.o)
                              /opt/altera/13.0sp1/nios2eds/bin/gnu/H-i686-pc-linux-gnu/bin/../lib/gcc/nios2-elf/4.1.2/../../../../nios2-elf/lib/mno-hw-mul/libc.a(lib_a-dtoa.o) (__gtdf2)
/opt/altera/13.0sp1/nios2eds/bin/gnu/H-i686-pc-linux-gnu/bin/../lib/gcc/nios2-elf/4.1.2/mno-hw-mul/libgcc.a(_ge_df.o)
                              /opt/altera/13.0sp1/nios2eds/bin/gnu/H-i686-pc-linux-gnu/bin/../lib/gcc/nios2-elf/4.1.2/../../../../nios2-elf/lib/mno-hw-mul/libc.a(lib_a-dtoa.o) (__gedf2)
/opt/altera/13.0sp1/nios2eds/bin/gnu/H-i686-pc-linux-gnu/bin/../lib/gcc/nios2-elf/4.1.2/mno-hw-mul/libgcc.a(_lt_df.o)
                              /opt/altera/13.0sp1/nios2eds/bin/gnu/H-i686-pc-linux-gnu/bin/../lib/gcc/nios2-elf/4.1.2/../../../../nios2-elf/lib/mno-hw-mul/libc.a(lib_a-vfprintf.o) (__ltdf2)
/opt/altera/13.0sp1/nios2eds/bin/gnu/H-i686-pc-linux-gnu/bin/../lib/gcc/nios2-elf/4.1.2/mno-hw-mul/libgcc.a(_si_to_df.o)
                              /opt/altera/13.0sp1/nios2eds/bin/gnu/H-i686-pc-linux-gnu/bin/../lib/gcc/nios2-elf/4.1.2/../../../../nios2-elf/lib/mno-hw-mul/libc.a(lib_a-dtoa.o) (__floatsidf)
/opt/altera/13.0sp1/nios2eds/bin/gnu/H-i686-pc-linux-gnu/bin/../lib/gcc/nios2-elf/4.1.2/mno-hw-mul/libgcc.a(_df_to_si.o)
                              /opt/altera/13.0sp1/nios2eds/bin/gnu/H-i686-pc-linux-gnu/bin/../lib/gcc/nios2-elf/4.1.2/../../../../nios2-elf/lib/mno-hw-mul/libc.a(lib_a-dtoa.o) (__fixdfsi)
/opt/altera/13.0sp1/nios2eds/bin/gnu/H-i686-pc-linux-gnu/bin/../lib/gcc/nios2-elf/4.1.2/mno-hw-mul/libgcc.a(_muldi3.o)
                              /opt/altera/13.0sp1/nios2eds/bin/gnu/H-i686-pc-linux-gnu/bin/../lib/gcc/nios2-elf/4.1.2/mno-hw-mul/libgcc.a(_mul_df.o) (__muldi3)
/opt/altera/13.0sp1/nios2eds/bin/gnu/H-i686-pc-linux-gnu/bin/../lib/gcc/nios2-elf/4.1.2/mno-hw-mul/libgcc.a(_fpcmp_parts_df.o)
                              /opt/altera/13.0sp1/nios2eds/bin/gnu/H-i686-pc-linux-gnu/bin/../lib/gcc/nios2-elf/4.1.2/mno-hw-mul/libgcc.a(_eq_df.o) (__fpcmp_parts_d)
../../bsp/single-rtos_bsp//libucosii_bsp.a(alt_close.o)
                              /opt/altera/13.0sp1/nios2eds/bin/gnu/H-i686-pc-linux-gnu/bin/../lib/gcc/nios2-elf/4.1.2/../../../../nios2-elf/lib/mno-hw-mul/libc.a(lib_a-closer.o) (close)
../../bsp/single-rtos_bsp//libucosii_bsp.a(alt_dev.o)
                              ../../bsp/single-rtos_bsp//libucosii_bsp.a(alt_close.o) (alt_fd_list)
../../bsp/single-rtos_bsp//libucosii_bsp.a(alt_errno.o)
                              ../../bsp/single-rtos_bsp//libucosii_bsp.a(alt_close.o) (alt_errno)
../../bsp/single-rtos_bsp//libucosii_bsp.a(alt_fstat.o)
                              /opt/altera/13.0sp1/nios2eds/bin/gnu/H-i686-pc-linux-gnu/bin/../lib/gcc/nios2-elf/4.1.2/../../../../nios2-elf/lib/mno-hw-mul/libc.a(lib_a-fstatr.o) (fstat)
../../bsp/single-rtos_bsp//libucosii_bsp.a(alt_isatty.o)
                              /opt/altera/13.0sp1/nios2eds/bin/gnu/H-i686-pc-linux-gnu/bin/../lib/gcc/nios2-elf/4.1.2/../../../../nios2-elf/lib/mno-hw-mul/libc.a(lib_a-isattyr.o) (isatty)
../../bsp/single-rtos_bsp//libucosii_bsp.a(alt_load.o)
                              ../../bsp/single-rtos_bsp//obj/HAL/src/crt0.o (alt_load)
../../bsp/single-rtos_bsp//libucosii_bsp.a(alt_lseek.o)
                              /opt/altera/13.0sp1/nios2eds/bin/gnu/H-i686-pc-linux-gnu/bin/../lib/gcc/nios2-elf/4.1.2/../../../../nios2-elf/lib/mno-hw-mul/libc.a(lib_a-lseekr.o) (lseek)
../../bsp/single-rtos_bsp//libucosii_bsp.a(alt_main.o)
                              ../../bsp/single-rtos_bsp//obj/HAL/src/crt0.o (alt_main)
../../bsp/single-rtos_bsp//libucosii_bsp.a(alt_read.o)
                              /opt/altera/13.0sp1/nios2eds/bin/gnu/H-i686-pc-linux-gnu/bin/../lib/gcc/nios2-elf/4.1.2/../../../../nios2-elf/lib/mno-hw-mul/libc.a(lib_a-readr.o) (read)
../../bsp/single-rtos_bsp//libucosii_bsp.a(alt_release_fd.o)
                              ../../bsp/single-rtos_bsp//libucosii_bsp.a(alt_close.o) (alt_release_fd)
../../bsp/single-rtos_bsp//libucosii_bsp.a(alt_sbrk.o)
                              /opt/altera/13.0sp1/nios2eds/bin/gnu/H-i686-pc-linux-gnu/bin/../lib/gcc/nios2-elf/4.1.2/../../../../nios2-elf/lib/mno-hw-mul/libc.a(lib_a-sbrkr.o) (sbrk)
../../bsp/single-rtos_bsp//libucosii_bsp.a(alt_write.o)
                              /opt/altera/13.0sp1/nios2eds/bin/gnu/H-i686-pc-linux-gnu/bin/../lib/gcc/nios2-elf/4.1.2/../../../../nios2-elf/lib/mno-hw-mul/libc.a(lib_a-writer.o) (write)
../../bsp/single-rtos_bsp//libucosii_bsp.a(alt_env_lock.o)
                              ../../bsp/single-rtos_bsp//libucosii_bsp.a(alt_main.o) (alt_envsem)
../../bsp/single-rtos_bsp//libucosii_bsp.a(alt_malloc_lock.o)
                              /opt/altera/13.0sp1/nios2eds/bin/gnu/H-i686-pc-linux-gnu/bin/../lib/gcc/nios2-elf/4.1.2/../../../../nios2-elf/lib/mno-hw-mul/libc.a(lib_a-freer.o) (__malloc_unlock)
../../bsp/single-rtos_bsp//libucosii_bsp.a(os_core.o)
                              obj/default/src_0/cpu_0.o (OSVersion)
../../bsp/single-rtos_bsp//libucosii_bsp.a(os_dbg.o)
                              ../../bsp/single-rtos_bsp//libucosii_bsp.a(os_core.o) (OSDebugInit)
../../bsp/single-rtos_bsp//libucosii_bsp.a(os_flag.o)
                              ../../bsp/single-rtos_bsp//libucosii_bsp.a(os_core.o) (OS_FlagInit)
../../bsp/single-rtos_bsp//libucosii_bsp.a(os_mem.o)
                              ../../bsp/single-rtos_bsp//libucosii_bsp.a(os_core.o) (OS_MemInit)
../../bsp/single-rtos_bsp//libucosii_bsp.a(os_q.o)
                              ../../bsp/single-rtos_bsp//libucosii_bsp.a(os_core.o) (OS_QInit)
../../bsp/single-rtos_bsp//libucosii_bsp.a(os_sem.o)
                              obj/default/src_0/cpu_0.o (OSSemCreate)
../../bsp/single-rtos_bsp//libucosii_bsp.a(os_task.o)
                              ../../bsp/single-rtos_bsp//libucosii_bsp.a(alt_env_lock.o) (OSTaskQuery)
../../bsp/single-rtos_bsp//libucosii_bsp.a(os_time.o)
                              ../../bsp/single-rtos_bsp//libucosii_bsp.a(os_core.o) (OSTimeDly)
../../bsp/single-rtos_bsp//libucosii_bsp.a(os_tmr.o)
                              ../../bsp/single-rtos_bsp//libucosii_bsp.a(os_core.o) (OSTmr_Init)
../../bsp/single-rtos_bsp//libucosii_bsp.a(alt_sys_init.o)
                              ../../bsp/single-rtos_bsp//libucosii_bsp.a(alt_main.o) (alt_sys_init)
../../bsp/single-rtos_bsp//libucosii_bsp.a(altera_avalon_jtag_uart_fd.o)
                              ../../bsp/single-rtos_bsp//libucosii_bsp.a(alt_sys_init.o) (altera_avalon_jtag_uart_ioctl_fd)
../../bsp/single-rtos_bsp//libucosii_bsp.a(altera_avalon_jtag_uart_init.o)
                              ../../bsp/single-rtos_bsp//libucosii_bsp.a(altera_avalon_jtag_uart_fd.o) (altera_avalon_jtag_uart_close)
../../bsp/single-rtos_bsp//libucosii_bsp.a(altera_avalon_jtag_uart_ioctl.o)
                              ../../bsp/single-rtos_bsp//libucosii_bsp.a(altera_avalon_jtag_uart_fd.o) (altera_avalon_jtag_uart_ioctl)
../../bsp/single-rtos_bsp//libucosii_bsp.a(altera_avalon_jtag_uart_read.o)
                              ../../bsp/single-rtos_bsp//libucosii_bsp.a(altera_avalon_jtag_uart_fd.o) (altera_avalon_jtag_uart_read)
../../bsp/single-rtos_bsp//libucosii_bsp.a(altera_avalon_jtag_uart_write.o)
                              ../../bsp/single-rtos_bsp//libucosii_bsp.a(altera_avalon_jtag_uart_fd.o) (altera_avalon_jtag_uart_write)
../../bsp/single-rtos_bsp//libucosii_bsp.a(altera_avalon_mutex.o)
                              ../../bsp/single-rtos_bsp//libucosii_bsp.a(alt_sys_init.o) (alt_mutex_list)
../../bsp/single-rtos_bsp//libucosii_bsp.a(altera_avalon_timer_sc.o)
                              ../../bsp/single-rtos_bsp//libucosii_bsp.a(alt_sys_init.o) (alt_avalon_timer_sc_init)
../../bsp/single-rtos_bsp//libucosii_bsp.a(alt_alarm_start.o)
                              ../../bsp/single-rtos_bsp//libucosii_bsp.a(altera_avalon_jtag_uart_init.o) (alt_alarm_start)
../../bsp/single-rtos_bsp//libucosii_bsp.a(alt_dcache_flush_all.o)
                              ../../bsp/single-rtos_bsp//libucosii_bsp.a(alt_load.o) (alt_dcache_flush_all)
../../bsp/single-rtos_bsp//libucosii_bsp.a(alt_dev_llist_insert.o)
                              ../../bsp/single-rtos_bsp//libucosii_bsp.a(alt_sys_init.o) (alt_dev_llist_insert)
../../bsp/single-rtos_bsp//libucosii_bsp.a(alt_do_ctors.o)
                              ../../bsp/single-rtos_bsp//libucosii_bsp.a(alt_main.o) (_do_ctors)
../../bsp/single-rtos_bsp//libucosii_bsp.a(alt_do_dtors.o)
                              ../../bsp/single-rtos_bsp//libucosii_bsp.a(alt_main.o) (_do_dtors)
../../bsp/single-rtos_bsp//libucosii_bsp.a(alt_find_dev.o)
                              ../../bsp/single-rtos_bsp//libucosii_bsp.a(altera_avalon_mutex.o) (alt_find_dev)
../../bsp/single-rtos_bsp//libucosii_bsp.a(alt_icache_flush_all.o)
                              ../../bsp/single-rtos_bsp//libucosii_bsp.a(alt_load.o) (alt_icache_flush_all)
../../bsp/single-rtos_bsp//libucosii_bsp.a(alt_io_redirect.o)
                              ../../bsp/single-rtos_bsp//libucosii_bsp.a(alt_main.o) (alt_io_redirect)
../../bsp/single-rtos_bsp//libucosii_bsp.a(alt_irq_register.o)
                              ../../bsp/single-rtos_bsp//libucosii_bsp.a(altera_avalon_jtag_uart_init.o) (alt_irq_register)
../../bsp/single-rtos_bsp//libucosii_bsp.a(alt_irq_vars.o)
                              ../../bsp/single-rtos_bsp//libucosii_bsp.a(alt_irq_register.o) (alt_irq_active)
../../bsp/single-rtos_bsp//libucosii_bsp.a(alt_open.o)
                              ../../bsp/single-rtos_bsp//libucosii_bsp.a(alt_io_redirect.o) (open)
../../bsp/single-rtos_bsp//libucosii_bsp.a(alt_tick.o)
                              ../../bsp/single-rtos_bsp//libucosii_bsp.a(altera_avalon_timer_sc.o) (alt_tick)
../../bsp/single-rtos_bsp//libucosii_bsp.a(altera_nios2_qsys_irq.o)
                              ../../bsp/single-rtos_bsp//libucosii_bsp.a(alt_sys_init.o) (altera_nios2_qsys_irq_init)
../../bsp/single-rtos_bsp//libucosii_bsp.a(os_cpu_a.o)
                              ../../bsp/single-rtos_bsp//libucosii_bsp.a(os_core.o) (OSIntCtxSw)
../../bsp/single-rtos_bsp//libucosii_bsp.a(os_cpu_c.o)
                              ../../bsp/single-rtos_bsp//libucosii_bsp.a(os_core.o) (OSTaskCreateHook)
../../bsp/single-rtos_bsp//libucosii_bsp.a(alt_find_file.o)
                              ../../bsp/single-rtos_bsp//libucosii_bsp.a(alt_open.o) (alt_find_file)
../../bsp/single-rtos_bsp//libucosii_bsp.a(alt_get_fd.o)
                              ../../bsp/single-rtos_bsp//libucosii_bsp.a(alt_open.o) (alt_get_fd)
../../bsp/single-rtos_bsp//libucosii_bsp.a(alt_irq_entry.o)
                              ../../bsp/single-rtos_bsp//libucosii_bsp.a(alt_irq_register.o) (alt_irq_entry)
../../bsp/single-rtos_bsp//libucosii_bsp.a(alt_irq_handler.o)
                              ../../bsp/single-rtos_bsp//libucosii_bsp.a(alt_irq_register.o) (alt_irq_handler)
../../bsp/single-rtos_bsp//libucosii_bsp.a(alt_exception_entry.o)
                              ../../bsp/single-rtos_bsp//libucosii_bsp.a(alt_irq_entry.o) (alt_exception)
/opt/altera/13.0sp1/nios2eds/bin/gnu/H-i686-pc-linux-gnu/bin/../lib/gcc/nios2-elf/4.1.2/../../../../nios2-elf/lib/mno-hw-mul/libc.a(lib_a-atexit.o)
                              ../../bsp/single-rtos_bsp//libucosii_bsp.a(alt_main.o) (atexit)
/opt/altera/13.0sp1/nios2eds/bin/gnu/H-i686-pc-linux-gnu/bin/../lib/gcc/nios2-elf/4.1.2/../../../../nios2-elf/lib/mno-hw-mul/libc.a(lib_a-exit.o)
                              ../../bsp/single-rtos_bsp//libucosii_bsp.a(alt_main.o) (exit)
/opt/altera/13.0sp1/nios2eds/bin/gnu/H-i686-pc-linux-gnu/bin/../lib/gcc/nios2-elf/4.1.2/../../../../nios2-elf/lib/mno-hw-mul/libc.a(lib_a-memcmp.o)
                              ../../bsp/single-rtos_bsp//libucosii_bsp.a(alt_find_dev.o) (memcmp)
/opt/altera/13.0sp1/nios2eds/bin/gnu/H-i686-pc-linux-gnu/bin/../lib/gcc/nios2-elf/4.1.2/../../../../nios2-elf/lib/mno-hw-mul/libc.a(lib_a-__atexit.o)
                              /opt/altera/13.0sp1/nios2eds/bin/gnu/H-i686-pc-linux-gnu/bin/../lib/gcc/nios2-elf/4.1.2/../../../../nios2-elf/lib/mno-hw-mul/libc.a(lib_a-atexit.o) (__register_exitproc)
/opt/altera/13.0sp1/nios2eds/bin/gnu/H-i686-pc-linux-gnu/bin/../lib/gcc/nios2-elf/4.1.2/../../../../nios2-elf/lib/mno-hw-mul/libc.a(lib_a-__call_atexit.o)
                              /opt/altera/13.0sp1/nios2eds/bin/gnu/H-i686-pc-linux-gnu/bin/../lib/gcc/nios2-elf/4.1.2/../../../../nios2-elf/lib/mno-hw-mul/libc.a(lib_a-exit.o) (__call_exitprocs)
/opt/altera/13.0sp1/nios2eds/bin/gnu/H-i686-pc-linux-gnu/bin/../lib/gcc/nios2-elf/4.1.2/mno-hw-mul/libgcc.a(_fixunsdfsi.o)
                              ../../bsp/single-rtos_bsp//libucosii_bsp.a(os_time.o) (__fixunsdfsi)
../../bsp/single-rtos_bsp//libucosii_bsp.a(alt_exit.o)
                              /opt/altera/13.0sp1/nios2eds/bin/gnu/H-i686-pc-linux-gnu/bin/../lib/gcc/nios2-elf/4.1.2/../../../../nios2-elf/lib/mno-hw-mul/libc.a(lib_a-exit.o) (_exit)

Allocating common symbols
Common symbol       size              file

OSTmrFreeList       0x4               ../../bsp/single-rtos_bsp//libucosii_bsp.a(os_core.o)
alt_irq             0x100             ../../bsp/single-rtos_bsp//libucosii_bsp.a(alt_irq_handler.o)
OSTmrWheelTbl       0x10              ../../bsp/single-rtos_bsp//libucosii_bsp.a(os_core.o)
task1_stk           0x2000            obj/default/src_0/cpu_0.o
OSLockNesting       0x1               ../../bsp/single-rtos_bsp//libucosii_bsp.a(os_core.o)
OSTmrSemSignal      0x4               ../../bsp/single-rtos_bsp//libucosii_bsp.a(os_core.o)
OSRunning           0x1               ../../bsp/single-rtos_bsp//libucosii_bsp.a(os_core.o)
OSIdleCtr           0x4               ../../bsp/single-rtos_bsp//libucosii_bsp.a(os_core.o)
Task2Sem            0x4               obj/default/src_0/cpu_0.o
maxcol              0x1               obj/default/src_0/cpu_0.o
OSTmrUsed           0x2               ../../bsp/single-rtos_bsp//libucosii_bsp.a(os_core.o)
OSPrioHighRdy       0x1               ../../bsp/single-rtos_bsp//libucosii_bsp.a(os_core.o)
errno               0x4               /opt/altera/13.0sp1/nios2eds/bin/gnu/H-i686-pc-linux-gnu/bin/../lib/gcc/nios2-elf/4.1.2/../../../../nios2-elf/lib/mno-hw-mul/libc.a(lib_a-int_errno.o)
offsetY             0x4               obj/default/src_0/cpu_0.o
offsetX             0x4               obj/default/src_0/cpu_0.o
alt_heapsem         0x4               ../../bsp/single-rtos_bsp//libucosii_bsp.a(alt_malloc_lock.o)
OSFlagTbl           0x370             ../../bsp/single-rtos_bsp//libucosii_bsp.a(os_core.o)
OSTmrTbl            0x340             ../../bsp/single-rtos_bsp//libucosii_bsp.a(os_core.o)
cropY               0x4               obj/default/src_0/cpu_0.o
OSPrioCur           0x1               ../../bsp/single-rtos_bsp//libucosii_bsp.a(os_core.o)
OSTCBList           0x4               ../../bsp/single-rtos_bsp//libucosii_bsp.a(os_core.o)
alt_fd_list_lock    0x4               ../../bsp/single-rtos_bsp//libucosii_bsp.a(alt_dev.o)
OSMemTbl            0xc30             ../../bsp/single-rtos_bsp//libucosii_bsp.a(os_core.o)
OSTickStepState     0x1               ../../bsp/single-rtos_bsp//libucosii_bsp.a(os_core.o)
OSTaskStatStk       0x800             ../../bsp/single-rtos_bsp//libucosii_bsp.a(os_core.o)
task4_stk           0x2000            obj/default/src_0/cpu_0.o
OSCtxSwCtr          0x4               ../../bsp/single-rtos_bsp//libucosii_bsp.a(os_core.o)
OSTmrFree           0x2               ../../bsp/single-rtos_bsp//libucosii_bsp.a(os_core.o)
Task5Sem            0x4               obj/default/src_0/cpu_0.o
OSIdleCtrMax        0x4               ../../bsp/single-rtos_bsp//libucosii_bsp.a(os_core.o)
OSTCBFreeList       0x4               ../../bsp/single-rtos_bsp//libucosii_bsp.a(os_core.o)
sumMatrix           0x1000            obj/default/src_0/cpu_0.o
sizeX               0x1               obj/default/src_0/cpu_0.o
OSCPUUsage          0x1               ../../bsp/single-rtos_bsp//libucosii_bsp.a(os_core.o)
detectX             0x4               obj/default/src_0/cpu_0.o
OSTaskCtr           0x1               ../../bsp/single-rtos_bsp//libucosii_bsp.a(os_core.o)
task7_stk           0x2000            obj/default/src_0/cpu_0.o
Task6Sem            0x4               obj/default/src_0/cpu_0.o
task6_stk           0x2000            obj/default/src_0/cpu_0.o
OSMemFreeList       0x4               ../../bsp/single-rtos_bsp//libucosii_bsp.a(os_core.o)
Task3Sem            0x4               obj/default/src_0/cpu_0.o
OSQTbl              0x1e0             ../../bsp/single-rtos_bsp//libucosii_bsp.a(os_core.o)
OSTCBHighRdy        0x4               ../../bsp/single-rtos_bsp//libucosii_bsp.a(os_core.o)
OSQFreeList         0x4               ../../bsp/single-rtos_bsp//libucosii_bsp.a(os_core.o)
OSRdyGrp            0x1               ../../bsp/single-rtos_bsp//libucosii_bsp.a(os_core.o)
task2_stk           0x2000            obj/default/src_0/cpu_0.o
_atexit0            0x190             /opt/altera/13.0sp1/nios2eds/bin/gnu/H-i686-pc-linux-gnu/bin/../lib/gcc/nios2-elf/4.1.2/../../../../nios2-elf/lib/mno-hw-mul/libc.a(lib_a-atexit.o)
task3_stk           0x2000            obj/default/src_0/cpu_0.o
StartTask_Stack     0x2000            obj/default/src_0/cpu_0.o
OSRdyTbl            0x3               ../../bsp/single-rtos_bsp//libucosii_bsp.a(os_core.o)
grayed_matrix       0x1000            obj/default/src_0/cpu_0.o
detectY             0x4               obj/default/src_0/cpu_0.o
CoordinateX         0x4               obj/default/src_0/cpu_0.o
OSTmrTaskStk        0x800             ../../bsp/single-rtos_bsp//libucosii_bsp.a(os_core.o)
cropX               0x4               obj/default/src_0/cpu_0.o
OSEventFreeList     0x4               ../../bsp/single-rtos_bsp//libucosii_bsp.a(os_core.o)
OSIntNesting        0x1               ../../bsp/single-rtos_bsp//libucosii_bsp.a(os_core.o)
OSTCBCur            0x4               ../../bsp/single-rtos_bsp//libucosii_bsp.a(os_core.o)
OSTmrTime           0x4               ../../bsp/single-rtos_bsp//libucosii_bsp.a(os_core.o)
OSTime              0x4               ../../bsp/single-rtos_bsp//libucosii_bsp.a(os_core.o)
OSTmrSem            0x4               ../../bsp/single-rtos_bsp//libucosii_bsp.a(os_core.o)
OSTaskIdleStk       0x800             ../../bsp/single-rtos_bsp//libucosii_bsp.a(os_core.o)
sizeY               0x1               obj/default/src_0/cpu_0.o
OSEventTbl          0xb40             ../../bsp/single-rtos_bsp//libucosii_bsp.a(os_core.o)
OSTCBTbl            0x510             ../../bsp/single-rtos_bsp//libucosii_bsp.a(os_core.o)
cropMatrix          0x1440            obj/default/src_0/cpu_0.o
OSFlagFreeList      0x4               ../../bsp/single-rtos_bsp//libucosii_bsp.a(os_core.o)
OSStatRdy           0x1               ../../bsp/single-rtos_bsp//libucosii_bsp.a(os_core.o)
OSTCBPrioTbl        0x54              ../../bsp/single-rtos_bsp//libucosii_bsp.a(os_core.o)
CoordinateY         0x4               obj/default/src_0/cpu_0.o
Task4Sem            0x4               obj/default/src_0/cpu_0.o
task5_stk           0x2000            obj/default/src_0/cpu_0.o
alt_envsem          0x4               ../../bsp/single-rtos_bsp//libucosii_bsp.a(alt_env_lock.o)
OSIdleCtrRun        0x4               ../../bsp/single-rtos_bsp//libucosii_bsp.a(os_core.o)
Task1Sem            0x4               obj/default/src_0/cpu_0.o

Memory Configuration

Name             Origin             Length             Attributes
reset            0x00080000         0x00000020
sram             0x00080020         0x0007ffe0
shared_onchip    0x00102000         0x00002000
sdram            0x01000000         0x00800000
*default*        0x00000000         0xffffffff

Linker script and memory map

LOAD ../../bsp/single-rtos_bsp//obj/HAL/src/crt0.o
LOAD obj/default/src_0/cpu_0.o
LOAD /opt/altera/13.0sp1/nios2eds/bin/gnu/H-i686-pc-linux-gnu/bin/../lib/gcc/nios2-elf/4.1.2/../../../../nios2-elf/lib/mno-hw-mul/libstdc++.a
LOAD /opt/altera/13.0sp1/nios2eds/bin/gnu/H-i686-pc-linux-gnu/bin/../lib/gcc/nios2-elf/4.1.2/../../../../nios2-elf/lib/mno-hw-mul/libm.a
LOAD /opt/altera/13.0sp1/nios2eds/bin/gnu/H-i686-pc-linux-gnu/bin/../lib/gcc/nios2-elf/4.1.2/mno-hw-mul/libgcc.a
START GROUP
LOAD /opt/altera/13.0sp1/nios2eds/bin/gnu/H-i686-pc-linux-gnu/bin/../lib/gcc/nios2-elf/4.1.2/../../../../nios2-elf/lib/mno-hw-mul/libc.a
LOAD /opt/altera/13.0sp1/nios2eds/bin/gnu/H-i686-pc-linux-gnu/bin/../lib/gcc/nios2-elf/4.1.2/mno-hw-mul/libgcc.a
LOAD ../../bsp/single-rtos_bsp//libucosii_bsp.a
END GROUP
LOAD /opt/altera/13.0sp1/nios2eds/bin/gnu/H-i686-pc-linux-gnu/bin/../lib/gcc/nios2-elf/4.1.2/mno-hw-mul/libgcc.a
                0x00080000                __alt_mem_sram = 0x80000
                0x00102000                __alt_mem_shared_onchip = 0x102000
                0x01000000                __alt_mem_sdram = 0x1000000

.entry          0x00080000       0x20
 *(.entry)
 .entry         0x00080000       0x20 ../../bsp/single-rtos_bsp//obj/HAL/src/crt0.o
                0x00080000                __reset

.exceptions     0x00080020      0x12c
                0x00080020                PROVIDE (__ram_exceptions_start, ABSOLUTE (.))
                0x00080020                . = ALIGN (0x20)
 *(.irq)
 *(.exceptions.entry.label)
 .exceptions.entry.label
                0x00080020        0x0 ../../bsp/single-rtos_bsp//libucosii_bsp.a(alt_irq_entry.o)
                0x00080020                alt_irq_entry
 .exceptions.entry.label
                0x00080020        0x0 ../../bsp/single-rtos_bsp//libucosii_bsp.a(alt_exception_entry.o)
                0x00080020                alt_exception
 *(.exceptions.entry.user)
 *(.exceptions.entry)
 .exceptions.entry
                0x00080020       0x54 ../../bsp/single-rtos_bsp//libucosii_bsp.a(alt_exception_entry.o)
 *(.exceptions.irqtest.user)
 *(.exceptions.irqtest)
 .exceptions.irqtest
                0x00080074       0x10 ../../bsp/single-rtos_bsp//libucosii_bsp.a(alt_irq_entry.o)
 *(.exceptions.irqhandler.user)
 *(.exceptions.irqhandler)
 .exceptions.irqhandler
                0x00080084        0x4 ../../bsp/single-rtos_bsp//libucosii_bsp.a(alt_irq_entry.o)
 *(.exceptions.irqreturn.user)
 *(.exceptions.irqreturn)
 .exceptions.irqreturn
                0x00080088        0x4 ../../bsp/single-rtos_bsp//libucosii_bsp.a(alt_irq_entry.o)
 *(.exceptions.notirq.label)
 .exceptions.notirq.label
                0x0008008c        0x0 ../../bsp/single-rtos_bsp//libucosii_bsp.a(alt_irq_entry.o)
 *(.exceptions.notirq.user)
 *(.exceptions.notirq)
 .exceptions.notirq
                0x0008008c        0x8 ../../bsp/single-rtos_bsp//libucosii_bsp.a(alt_exception_entry.o)
 *(.exceptions.soft.user)
 *(.exceptions.soft)
 *(.exceptions.unknown.user)
 *(.exceptions.unknown)
 .exceptions.unknown
                0x00080094        0x4 ../../bsp/single-rtos_bsp//libucosii_bsp.a(alt_exception_entry.o)
 *(.exceptions.exit.label)
 .exceptions.exit.label
                0x00080098        0x0 ../../bsp/single-rtos_bsp//libucosii_bsp.a(alt_irq_entry.o)
 .exceptions.exit.label
                0x00080098        0x0 ../../bsp/single-rtos_bsp//libucosii_bsp.a(alt_exception_entry.o)
 *(.exceptions.exit.user)
 *(.exceptions.exit)
 .exceptions.exit
                0x00080098       0x54 ../../bsp/single-rtos_bsp//libucosii_bsp.a(alt_exception_entry.o)
 *(.exceptions)
 .exceptions    0x000800ec       0x60 ../../bsp/single-rtos_bsp//libucosii_bsp.a(alt_irq_handler.o)
                0x000800ec                alt_irq_handler
                0x0008014c                PROVIDE (__ram_exceptions_end, ABSOLUTE (.))
                0x00080020                PROVIDE (__flash_exceptions_start, LOADADDR (.exceptions))

.text           0x0008014c    0x11b34
                0x0008014c                PROVIDE (stext, ABSOLUTE (.))
 *(.interp)
 *(.hash)
 *(.dynsym)
 *(.dynstr)
 *(.gnu.version)
 *(.gnu.version_d)
 *(.gnu.version_r)
 *(.rel.init)
 *(.rela.init)
 *(.rel.text .rel.text.* .rel.gnu.linkonce.t.*)
 *(.rela.text .rela.text.* .rela.gnu.linkonce.t.*)
 *(.rel.fini)
 *(.rela.fini)
 *(.rel.rodata .rel.rodata.* .rel.gnu.linkonce.r.*)
 *(.rela.rodata .rela.rodata.* .rela.gnu.linkonce.r.*)
 *(.rel.data .rel.data.* .rel.gnu.linkonce.d.*)
 *(.rela.data .rela.data.* .rela.gnu.linkonce.d.*)
 *(.rel.tdata .rel.tdata.* .rel.gnu.linkonce.td.*)
 *(.rela.tdata .rela.tdata.* .rela.gnu.linkonce.td.*)
 *(.rel.tbss .rel.tbss.* .rel.gnu.linkonce.tb.*)
 *(.rela.tbss .rela.tbss.* .rela.gnu.linkonce.tb.*)
 *(.rel.ctors)
 *(.rela.ctors)
 *(.rel.dtors)
 *(.rela.dtors)
 *(.rel.got)
 *(.rela.got)
 *(.rel.sdata .rel.sdata.* .rel.gnu.linkonce.s.*)
 *(.rela.sdata .rela.sdata.* .rela.gnu.linkonce.s.*)
 *(.rel.sbss .rel.sbss.* .rel.gnu.linkonce.sb.*)
 *(.rela.sbss .rela.sbss.* .rela.gnu.linkonce.sb.*)
 *(.rel.sdata2 .rel.sdata2.* .rel.gnu.linkonce.s2.*)
 *(.rela.sdata2 .rela.sdata2.* .rela.gnu.linkonce.s2.*)
 *(.rel.sbss2 .rel.sbss2.* .rel.gnu.linkonce.sb2.*)
 *(.rela.sbss2 .rela.sbss2.* .rela.gnu.linkonce.sb2.*)
 *(.rel.bss .rel.bss.* .rel.gnu.linkonce.b.*)
 *(.rela.bss .rela.bss.* .rela.gnu.linkonce.b.*)
 *(.rel.plt)
 *(.rela.plt)
 *(.rel.dyn)
 *(.init)
 *(.plt)
 *(.text .stub .text.* .gnu.linkonce.t.*)
 .text          0x0008014c       0x3c ../../bsp/single-rtos_bsp//obj/HAL/src/crt0.o
                0x0008014c                _start
 .text          0x00080188      0xddc obj/default/src_0/cpu_0.o
                0x00080188                main
                0x00080224                StartTask
                0x000803fc                task6
                0x00080470                task5
                0x000804f4                task4
                0x0008063c                task3
                0x000806e0                task2
                0x00080774                gray_displayAsciiHidden
                0x000808ec                gray_displayAscii
                0x00080a2c                task1
                0x00080cb8                printAsciiHidden
                0x00080dc8                printAscii_int
                0x00080ea8                printAscii
 .text          0x00080f64      0x258 /opt/altera/13.0sp1/nios2eds/bin/gnu/H-i686-pc-linux-gnu/bin/../lib/gcc/nios2-elf/4.1.2/mno-hw-mul/libgcc.a(_div_df.o)
                0x00080f64                __divdf3
 .text          0x000811bc        0x0 /opt/altera/13.0sp1/nios2eds/bin/gnu/H-i686-pc-linux-gnu/bin/../lib/gcc/nios2-elf/4.1.2/mno-hw-mul/libgcc.a(_thenan_df.o)
 .text          0x000811bc      0x194 /opt/altera/13.0sp1/nios2eds/bin/gnu/H-i686-pc-linux-gnu/bin/../lib/gcc/nios2-elf/4.1.2/mno-hw-mul/libgcc.a(_usi_to_df.o)
                0x000811bc                __floatunsidf
 .text          0x00081350      0x14c /opt/altera/13.0sp1/nios2eds/bin/gnu/H-i686-pc-linux-gnu/bin/../lib/gcc/nios2-elf/4.1.2/mno-hw-mul/libgcc.a(lib2-divmod.o)
                0x000813cc                __divsi3
                0x0008142c                __modsi3
                0x0008148c                __udivsi3
                0x00081494                __umodsi3
 .text          0x0008149c       0x38 /opt/altera/13.0sp1/nios2eds/bin/gnu/H-i686-pc-linux-gnu/bin/../lib/gcc/nios2-elf/4.1.2/mno-hw-mul/libgcc.a(lib2-mul.o)
                0x0008149c                __mulsi3
 .text          0x000814d4       0x80 /opt/altera/13.0sp1/nios2eds/bin/gnu/H-i686-pc-linux-gnu/bin/../lib/gcc/nios2-elf/4.1.2/mno-hw-mul/libgcc.a(_clzsi2.o)
                0x000814d4                __clzsi2
 .text          0x00081554      0x314 /opt/altera/13.0sp1/nios2eds/bin/gnu/H-i686-pc-linux-gnu/bin/../lib/gcc/nios2-elf/4.1.2/mno-hw-mul/libgcc.a(_pack_df.o)
                0x00081554                __pack_d
 .text          0x00081868      0x138 /opt/altera/13.0sp1/nios2eds/bin/gnu/H-i686-pc-linux-gnu/bin/../lib/gcc/nios2-elf/4.1.2/mno-hw-mul/libgcc.a(_unpack_df.o)
                0x00081868                __unpack_d
 .text          0x000819a0        0x0 /opt/altera/13.0sp1/nios2eds/bin/gnu/H-i686-pc-linux-gnu/bin/../lib/gcc/nios2-elf/4.1.2/mno-hw-mul/libgcc.a(_clz.o)
 .text          0x000819a0       0x78 /opt/altera/13.0sp1/nios2eds/bin/gnu/H-i686-pc-linux-gnu/bin/../lib/gcc/nios2-elf/4.1.2/../../../../nios2-elf/lib/mno-hw-mul/libc.a(lib_a-printf.o)
                0x000819a0                printf
                0x000819e4                _printf_r
 .text          0x00081a18       0x24 /opt/altera/13.0sp1/nios2eds/bin/gnu/H-i686-pc-linux-gnu/bin/../lib/gcc/nios2-elf/4.1.2/../../../../nios2-elf/lib/mno-hw-mul/libc.a(lib_a-putchar.o)
                0x00081a18                putchar
                0x00081a34                _putchar_r
 .text          0x00081a3c       0xb4 /opt/altera/13.0sp1/nios2eds/bin/gnu/H-i686-pc-linux-gnu/bin/../lib/gcc/nios2-elf/4.1.2/../../../../nios2-elf/lib/mno-hw-mul/libc.a(lib_a-puts.o)
                0x00081a3c                _puts_r
                0x00081adc                puts
 .text          0x00081af0       0x74 /opt/altera/13.0sp1/nios2eds/bin/gnu/H-i686-pc-linux-gnu/bin/../lib/gcc/nios2-elf/4.1.2/../../../../nios2-elf/lib/mno-hw-mul/libc.a(lib_a-strlen.o)
                0x00081af0                strlen
 .text          0x00081b64     0x1f40 /opt/altera/13.0sp1/nios2eds/bin/gnu/H-i686-pc-linux-gnu/bin/../lib/gcc/nios2-elf/4.1.2/../../../../nios2-elf/lib/mno-hw-mul/libc.a(lib_a-vfprintf.o)
                0x00081bbc                ___vfprintf_internal_r
                0x00083a80                __vfprintf_internal
 .text          0x00083aa4      0x13c /opt/altera/13.0sp1/nios2eds/bin/gnu/H-i686-pc-linux-gnu/bin/../lib/gcc/nios2-elf/4.1.2/../../../../nios2-elf/lib/mno-hw-mul/libc.a(lib_a-wsetup.o)
                0x00083aa4                __swsetup_r
 .text          0x00083be0     0x17f8 /opt/altera/13.0sp1/nios2eds/bin/gnu/H-i686-pc-linux-gnu/bin/../lib/gcc/nios2-elf/4.1.2/../../../../nios2-elf/lib/mno-hw-mul/libc.a(lib_a-dtoa.o)
                0x00083e24                _dtoa_r
 .text          0x000853d8      0x230 /opt/altera/13.0sp1/nios2eds/bin/gnu/H-i686-pc-linux-gnu/bin/../lib/gcc/nios2-elf/4.1.2/../../../../nios2-elf/lib/mno-hw-mul/libc.a(lib_a-fflush.o)
                0x000853d8                _fflush_r
                0x000855d4                fflush
 .text          0x00085608      0x2f4 /opt/altera/13.0sp1/nios2eds/bin/gnu/H-i686-pc-linux-gnu/bin/../lib/gcc/nios2-elf/4.1.2/../../../../nios2-elf/lib/mno-hw-mul/libc.a(lib_a-findfp.o)
                0x00085660                __sfp_lock_acquire
                0x00085664                __sfp_lock_release
                0x00085668                __sinit_lock_acquire
                0x0008566c                __sinit_lock_release
                0x00085670                __sinit
                0x00085724                __fp_unlock_all
                0x0008573c                __fp_lock_all
                0x00085754                _cleanup_r
                0x00085760                _cleanup
                0x00085770                __sfmoreglue
                0x0008580c                __sfp
 .text          0x000858fc      0x440 /opt/altera/13.0sp1/nios2eds/bin/gnu/H-i686-pc-linux-gnu/bin/../lib/gcc/nios2-elf/4.1.2/../../../../nios2-elf/lib/mno-hw-mul/libc.a(lib_a-freer.o)
                0x000858fc                _malloc_trim_r
                0x00085a28                _free_r
 .text          0x00085d3c      0x49c /opt/altera/13.0sp1/nios2eds/bin/gnu/H-i686-pc-linux-gnu/bin/../lib/gcc/nios2-elf/4.1.2/../../../../nios2-elf/lib/mno-hw-mul/libc.a(lib_a-fvwrite.o)
                0x00085d3c                __sfvwrite_r
 .text          0x000861d8      0x180 /opt/altera/13.0sp1/nios2eds/bin/gnu/H-i686-pc-linux-gnu/bin/../lib/gcc/nios2-elf/4.1.2/../../../../nios2-elf/lib/mno-hw-mul/libc.a(lib_a-fwalk.o)
                0x000861d8                _fwalk_reent
                0x000862a0                _fwalk
 .text          0x00086358        0x0 /opt/altera/13.0sp1/nios2eds/bin/gnu/H-i686-pc-linux-gnu/bin/../lib/gcc/nios2-elf/4.1.2/../../../../nios2-elf/lib/mno-hw-mul/libc.a(lib_a-impure.o)
 .text          0x00086358       0xc4 /opt/altera/13.0sp1/nios2eds/bin/gnu/H-i686-pc-linux-gnu/bin/../lib/gcc/nios2-elf/4.1.2/../../../../nios2-elf/lib/mno-hw-mul/libc.a(lib_a-locale.o)
                0x00086358                __locale_charset
                0x00086360                _localeconv_r
                0x0008636c                localeconv
                0x0008637c                _setlocale_r
                0x00086400                setlocale
 .text          0x0008641c      0x194 /opt/altera/13.0sp1/nios2eds/bin/gnu/H-i686-pc-linux-gnu/bin/../lib/gcc/nios2-elf/4.1.2/../../../../nios2-elf/lib/mno-hw-mul/libc.a(lib_a-makebuf.o)
                0x0008641c                __smakebuf_r
 .text          0x000865b0      0x740 /opt/altera/13.0sp1/nios2eds/bin/gnu/H-i686-pc-linux-gnu/bin/../lib/gcc/nios2-elf/4.1.2/../../../../nios2-elf/lib/mno-hw-mul/libc.a(lib_a-mallocr.o)
                0x000865b0                _malloc_r
 .text          0x00086cf0       0xe4 /opt/altera/13.0sp1/nios2eds/bin/gnu/H-i686-pc-linux-gnu/bin/../lib/gcc/nios2-elf/4.1.2/../../../../nios2-elf/lib/mno-hw-mul/libc.a(lib_a-memchr.o)
                0x00086cf0                memchr
 .text          0x00086dd4       0xa0 /opt/altera/13.0sp1/nios2eds/bin/gnu/H-i686-pc-linux-gnu/bin/../lib/gcc/nios2-elf/4.1.2/../../../../nios2-elf/lib/mno-hw-mul/libc.a(lib_a-memcpy.o)
                0x00086dd4                memcpy
 .text          0x00086e74       0xe0 /opt/altera/13.0sp1/nios2eds/bin/gnu/H-i686-pc-linux-gnu/bin/../lib/gcc/nios2-elf/4.1.2/../../../../nios2-elf/lib/mno-hw-mul/libc.a(lib_a-memmove.o)
                0x00086e74                memmove
 .text          0x00086f54       0x98 /opt/altera/13.0sp1/nios2eds/bin/gnu/H-i686-pc-linux-gnu/bin/../lib/gcc/nios2-elf/4.1.2/../../../../nios2-elf/lib/mno-hw-mul/libc.a(lib_a-memset.o)
                0x00086f54                memset
 .text          0x00086fec     0x108c /opt/altera/13.0sp1/nios2eds/bin/gnu/H-i686-pc-linux-gnu/bin/../lib/gcc/nios2-elf/4.1.2/../../../../nios2-elf/lib/mno-hw-mul/libc.a(lib_a-mprec.o)
                0x00086fec                _Bfree
                0x00087014                __hi0bits
                0x00087084                __lo0bits
                0x00087148                __mcmp
                0x000871a8                __ulp
                0x00087228                __b2d
                0x00087348                __ratio
                0x000873f8                _mprec_log10
                0x0008748c                __copybits
                0x000874e4                __any_on
                0x0008756c                _Balloc
                0x00087628                __d2b
                0x000877a4                __mdiff
                0x00087930                __lshift
                0x00087a7c                __multiply
                0x00087cd0                __i2b
                0x00087d0c                __multadd
                0x00087e38                __pow5mult
                0x00087f58                __s2b
 .text          0x00088078      0x1ec /opt/altera/13.0sp1/nios2eds/bin/gnu/H-i686-pc-linux-gnu/bin/../lib/gcc/nios2-elf/4.1.2/../../../../nios2-elf/lib/mno-hw-mul/libc.a(lib_a-putc.o)
                0x00088078                putc
                0x0008817c                _putc_r
 .text          0x00088264      0x5f4 /opt/altera/13.0sp1/nios2eds/bin/gnu/H-i686-pc-linux-gnu/bin/../lib/gcc/nios2-elf/4.1.2/../../../../nios2-elf/lib/mno-hw-mul/libc.a(lib_a-reallocr.o)
                0x00088264                _realloc_r
 .text          0x00088858       0x40 /opt/altera/13.0sp1/nios2eds/bin/gnu/H-i686-pc-linux-gnu/bin/../lib/gcc/nios2-elf/4.1.2/../../../../nios2-elf/lib/mno-hw-mul/libc.a(lib_a-s_isinfd.o)
                0x00088858                __isinfd
 .text          0x00088898       0x30 /opt/altera/13.0sp1/nios2eds/bin/gnu/H-i686-pc-linux-gnu/bin/../lib/gcc/nios2-elf/4.1.2/../../../../nios2-elf/lib/mno-hw-mul/libc.a(lib_a-s_isnand.o)
                0x00088898                __isnand
 .text          0x000888c8       0x70 /opt/altera/13.0sp1/nios2eds/bin/gnu/H-i686-pc-linux-gnu/bin/../lib/gcc/nios2-elf/4.1.2/../../../../nios2-elf/lib/mno-hw-mul/libc.a(lib_a-sbrkr.o)
                0x000888c8                _sbrk_r
 .text          0x00088938      0x14c /opt/altera/13.0sp1/nios2eds/bin/gnu/H-i686-pc-linux-gnu/bin/../lib/gcc/nios2-elf/4.1.2/../../../../nios2-elf/lib/mno-hw-mul/libc.a(lib_a-stdio.o)
                0x00088938                __sclose
                0x00088940                __sseek
                0x000889a8                __swrite
                0x00088a24                __sread
 .text          0x00088a84       0xbc /opt/altera/13.0sp1/nios2eds/bin/gnu/H-i686-pc-linux-gnu/bin/../lib/gcc/nios2-elf/4.1.2/../../../../nios2-elf/lib/mno-hw-mul/libc.a(lib_a-strcmp.o)
                0x00088a84                strcmp
 .text          0x00088b40      0x14c /opt/altera/13.0sp1/nios2eds/bin/gnu/H-i686-pc-linux-gnu/bin/../lib/gcc/nios2-elf/4.1.2/../../../../nios2-elf/lib/mno-hw-mul/libc.a(lib_a-wbuf.o)
                0x00088b40                __swbuf_r
                0x00088c70                __swbuf
 .text          0x00088c8c       0x78 /opt/altera/13.0sp1/nios2eds/bin/gnu/H-i686-pc-linux-gnu/bin/../lib/gcc/nios2-elf/4.1.2/../../../../nios2-elf/lib/mno-hw-mul/libc.a(lib_a-writer.o)
                0x00088c8c                _write_r
 .text          0x00088d04       0xc8 /opt/altera/13.0sp1/nios2eds/bin/gnu/H-i686-pc-linux-gnu/bin/../lib/gcc/nios2-elf/4.1.2/../../../../nios2-elf/lib/mno-hw-mul/libc.a(lib_a-callocr.o)
                0x00088d04                _calloc_r
 .text          0x00088dcc       0x70 /opt/altera/13.0sp1/nios2eds/bin/gnu/H-i686-pc-linux-gnu/bin/../lib/gcc/nios2-elf/4.1.2/../../../../nios2-elf/lib/mno-hw-mul/libc.a(lib_a-closer.o)
                0x00088dcc                _close_r
 .text          0x00088e3c      0x124 /opt/altera/13.0sp1/nios2eds/bin/gnu/H-i686-pc-linux-gnu/bin/../lib/gcc/nios2-elf/4.1.2/../../../../nios2-elf/lib/mno-hw-mul/libc.a(lib_a-fclose.o)
                0x00088e3c                _fclose_r
                0x00088f4c                fclose
 .text          0x00088f60       0x74 /opt/altera/13.0sp1/nios2eds/bin/gnu/H-i686-pc-linux-gnu/bin/../lib/gcc/nios2-elf/4.1.2/../../../../nios2-elf/lib/mno-hw-mul/libc.a(lib_a-fstatr.o)
                0x00088f60                _fstat_r
 .text          0x00088fd4        0x0 /opt/altera/13.0sp1/nios2eds/bin/gnu/H-i686-pc-linux-gnu/bin/../lib/gcc/nios2-elf/4.1.2/../../../../nios2-elf/lib/mno-hw-mul/libc.a(lib_a-int_errno.o)
 .text          0x00088fd4       0x70 /opt/altera/13.0sp1/nios2eds/bin/gnu/H-i686-pc-linux-gnu/bin/../lib/gcc/nios2-elf/4.1.2/../../../../nios2-elf/lib/mno-hw-mul/libc.a(lib_a-isattyr.o)
                0x00088fd4                _isatty_r
 .text          0x00089044       0x78 /opt/altera/13.0sp1/nios2eds/bin/gnu/H-i686-pc-linux-gnu/bin/../lib/gcc/nios2-elf/4.1.2/../../../../nios2-elf/lib/mno-hw-mul/libc.a(lib_a-lseekr.o)
                0x00089044                _lseek_r
 .text          0x000890bc       0x78 /opt/altera/13.0sp1/nios2eds/bin/gnu/H-i686-pc-linux-gnu/bin/../lib/gcc/nios2-elf/4.1.2/../../../../nios2-elf/lib/mno-hw-mul/libc.a(lib_a-readr.o)
                0x000890bc                _read_r
 .text          0x00089134      0x66c /opt/altera/13.0sp1/nios2eds/bin/gnu/H-i686-pc-linux-gnu/bin/../lib/gcc/nios2-elf/4.1.2/mno-hw-mul/libgcc.a(_udivdi3.o)
                0x00089134                __udivdi3
 .text          0x000897a0      0x660 /opt/altera/13.0sp1/nios2eds/bin/gnu/H-i686-pc-linux-gnu/bin/../lib/gcc/nios2-elf/4.1.2/mno-hw-mul/libgcc.a(_umoddi3.o)
                0x000897a0                __umoddi3
 .text          0x00089e00      0x504 /opt/altera/13.0sp1/nios2eds/bin/gnu/H-i686-pc-linux-gnu/bin/../lib/gcc/nios2-elf/4.1.2/mno-hw-mul/libgcc.a(_addsub_df.o)
                0x0008a210                __subdf3
                0x0008a290                __adddf3
 .text          0x0008a304      0x3c4 /opt/altera/13.0sp1/nios2eds/bin/gnu/H-i686-pc-linux-gnu/bin/../lib/gcc/nios2-elf/4.1.2/mno-hw-mul/libgcc.a(_mul_df.o)
                0x0008a304                __muldf3
 .text          0x0008a6c8       0x88 /opt/altera/13.0sp1/nios2eds/bin/gnu/H-i686-pc-linux-gnu/bin/../lib/gcc/nios2-elf/4.1.2/mno-hw-mul/libgcc.a(_eq_df.o)
                0x0008a6c8                __eqdf2
 .text          0x0008a750       0x88 /opt/altera/13.0sp1/nios2eds/bin/gnu/H-i686-pc-linux-gnu/bin/../lib/gcc/nios2-elf/4.1.2/mno-hw-mul/libgcc.a(_ne_df.o)
                0x0008a750                __nedf2
 .text          0x0008a7d8       0x88 /opt/altera/13.0sp1/nios2eds/bin/gnu/H-i686-pc-linux-gnu/bin/../lib/gcc/nios2-elf/4.1.2/mno-hw-mul/libgcc.a(_gt_df.o)
                0x0008a7d8                __gtdf2
 .text          0x0008a860       0x88 /opt/altera/13.0sp1/nios2eds/bin/gnu/H-i686-pc-linux-gnu/bin/../lib/gcc/nios2-elf/4.1.2/mno-hw-mul/libgcc.a(_ge_df.o)
                0x0008a860                __gedf2
 .text          0x0008a8e8       0x88 /opt/altera/13.0sp1/nios2eds/bin/gnu/H-i686-pc-linux-gnu/bin/../lib/gcc/nios2-elf/4.1.2/mno-hw-mul/libgcc.a(_lt_df.o)
                0x0008a8e8                __ltdf2
 .text          0x0008a970       0xf8 /opt/altera/13.0sp1/nios2eds/bin/gnu/H-i686-pc-linux-gnu/bin/../lib/gcc/nios2-elf/4.1.2/mno-hw-mul/libgcc.a(_si_to_df.o)
                0x0008a970                __floatsidf
 .text          0x0008aa68       0xd8 /opt/altera/13.0sp1/nios2eds/bin/gnu/H-i686-pc-linux-gnu/bin/../lib/gcc/nios2-elf/4.1.2/mno-hw-mul/libgcc.a(_df_to_si.o)
                0x0008aa68                __fixdfsi
 .text          0x0008ab40      0x124 /opt/altera/13.0sp1/nios2eds/bin/gnu/H-i686-pc-linux-gnu/bin/../lib/gcc/nios2-elf/4.1.2/mno-hw-mul/libgcc.a(_muldi3.o)
                0x0008ab40                __muldi3
 .text          0x0008ac64       0xc8 /opt/altera/13.0sp1/nios2eds/bin/gnu/H-i686-pc-linux-gnu/bin/../lib/gcc/nios2-elf/4.1.2/mno-hw-mul/libgcc.a(_fpcmp_parts_df.o)
                0x0008ac64                __fpcmp_parts_d
 .text          0x0008ad2c       0xbc ../../bsp/single-rtos_bsp//libucosii_bsp.a(alt_close.o)
                0x0008ad4c                close
 .text          0x0008ade8        0x8 ../../bsp/single-rtos_bsp//libucosii_bsp.a(alt_dev.o)
 .text          0x0008adf0        0x0 ../../bsp/single-rtos_bsp//libucosii_bsp.a(alt_errno.o)
 .text          0x0008adf0       0x9c ../../bsp/single-rtos_bsp//libucosii_bsp.a(alt_fstat.o)
                0x0008adf0                fstat
 .text          0x0008ae8c       0x94 ../../bsp/single-rtos_bsp//libucosii_bsp.a(alt_isatty.o)
                0x0008ae8c                isatty
 .text          0x0008af20       0x8c ../../bsp/single-rtos_bsp//libucosii_bsp.a(alt_load.o)
                0x0008af40                alt_load
 .text          0x0008afac       0xb8 ../../bsp/single-rtos_bsp//libucosii_bsp.a(alt_lseek.o)
                0x0008afac                lseek
 .text          0x0008b064       0xa8 ../../bsp/single-rtos_bsp//libucosii_bsp.a(alt_main.o)
                0x0008b064                alt_main
 .text          0x0008b10c       0xd8 ../../bsp/single-rtos_bsp//libucosii_bsp.a(alt_read.o)
                0x0008b12c                read
 .text          0x0008b1e4       0x5c ../../bsp/single-rtos_bsp//libucosii_bsp.a(alt_release_fd.o)
                0x0008b1e4                alt_release_fd
 .text          0x0008b240       0x50 ../../bsp/single-rtos_bsp//libucosii_bsp.a(alt_sbrk.o)
                0x0008b240                sbrk
 .text          0x0008b290       0xd4 ../../bsp/single-rtos_bsp//libucosii_bsp.a(alt_write.o)
                0x0008b2b0                write
 .text          0x0008b364       0xa8 ../../bsp/single-rtos_bsp//libucosii_bsp.a(alt_env_lock.o)
                0x0008b364                __env_unlock
                0x0008b38c                __env_lock
 .text          0x0008b40c      0x110 ../../bsp/single-rtos_bsp//libucosii_bsp.a(alt_malloc_lock.o)
                0x0008b40c                __malloc_unlock
                0x0008b468                __malloc_lock
 .text          0x0008b51c     0x1118 ../../bsp/single-rtos_bsp//libucosii_bsp.a(os_core.o)
                0x0008b51c                OSVersion
                0x0008b524                OS_Dummy
                0x0008b528                OS_EventTaskWait
                0x0008b5ac                OS_EventTaskWaitMulti
                0x0008b64c                OS_EventTaskRemove
                0x0008b698                OS_EventTaskRemoveMulti
                0x0008b6f4                OS_EventTaskRdy
                0x0008b7e8                OS_EventWaitListInit
                0x0008b804                OS_MemClr
                0x0008b820                OS_MemCopy
                0x0008b844                OS_StrCopy
                0x0008b870                OS_StrLen
                0x0008b890                OS_TaskStatStkChk
                0x0008b914                OS_Sched
                0x0008b9cc                OSStart
                0x0008ba38                OSInit
                0x0008bc18                OSEventNameGet
                0x0008bcd0                OSEventPendMulti
                0x0008c028                OSIntEnter
                0x0008c064                OSSchedLock
                0x0008c0a8                OSSchedUnlock
                0x0008c0fc                OSStatInit
                0x0008c160                OSTimeTick
                0x0008c26c                OS_TaskIdle
                0x0008c29c                OS_TaskStat
                0x0008c320                OS_TCBInit
                0x0008c4a4                OSIntExit
                0x0008c578                OSEventNameSet
 .text          0x0008c634        0x4 ../../bsp/single-rtos_bsp//libucosii_bsp.a(os_dbg.o)
                0x0008c634                OSDebugInit
 .text          0x0008c638      0xc5c ../../bsp/single-rtos_bsp//libucosii_bsp.a(os_flag.o)
                0x0008c6f0                OS_FlagUnlink
                0x0008c7bc                OS_FlagInit
                0x0008c82c                OSFlagQuery
                0x0008c888                OSFlagAccept
                0x0008c9f8                OSFlagCreate
                0x0008ca80                OSFlagDel
                0x0008cbe0                OSFlagNameGet
                0x0008cca0                OSFlagNameSet
                0x0008cd74                OSFlagPend
                0x0008d074                OSFlagPendGetFlagsRdy
                0x0008d0a0                OSFlagPost
 .text          0x0008d294      0x3b8 ../../bsp/single-rtos_bsp//libucosii_bsp.a(os_mem.o)
                0x0008d294                OS_MemInit
                0x0008d2fc                OSMemQuery
                0x0008d360                OSMemCreate
                0x0008d430                OSMemGet
                0x0008d49c                OSMemNameGet
                0x0008d538                OSMemNameSet
                0x0008d5f4                OSMemPut
 .text          0x0008d64c      0x9c4 ../../bsp/single-rtos_bsp//libucosii_bsp.a(os_q.o)
                0x0008d64c                OS_QInit
                0x0008d69c                OSQQuery
                0x0008d734                OSQAccept
                0x0008d7d0                OSQCreate
                0x0008d8d0                OSQDel
                0x0008da54                OSQFlush
                0x0008daa4                OSQPend
                0x0008dc64                OSQPendAbort
                0x0008dd4c                OSQPost
                0x0008de08                OSQPostFront
                0x0008decc                OSQPostOpt
 .text          0x0008e010      0x5e0 ../../bsp/single-rtos_bsp//libucosii_bsp.a(os_sem.o)
                0x0008e010                OSSemSet
                0x0008e074                OSSemAccept
                0x0008e0b8                OSSemCreate
                0x0008e144                OSSemDel
                0x0008e298                OSSemPend
                0x0008e400                OSSemPendAbort
                0x0008e4ec                OSSemPost
                0x0008e588                OSSemQuery
 .text          0x0008e5f0      0xe74 ../../bsp/single-rtos_bsp//libucosii_bsp.a(os_task.o)
                0x0008e5f0                OS_TaskStkClr
                0x0008e620                OSTaskQuery
                0x0008e6e8                OSTaskChangePrio
                0x0008e984                OSTaskCreate
                0x0008ea90                OSTaskCreateExt
                0x0008ec08                OSTaskDel
                0x0008ee54                OSTaskDelReq
                0x0008ef08                OSTaskNameGet
                0x0008f010                OSTaskNameSet
                0x0008f12c                OSTaskResume
                0x0008f230                OSTaskStkChk
                0x0008f320                OSTaskSuspend
 .text          0x0008f464      0x378 ../../bsp/single-rtos_bsp//libucosii_bsp.a(os_time.o)
                0x0008f464                OSTimeSet
                0x0008f488                OSTimeDly
                0x0008f520                OSTimeDlyHMSM
                0x0008f6c0                OSTimeDlyResume
                0x0008f7b8                OSTimeGet
 .text          0x0008f7dc      0xb94 ../../bsp/single-rtos_bsp//libucosii_bsp.a(os_tmr.o)
                0x0008f948                OSTmr_Init
                0x0008fba4                OSTmrStop
                0x0008fd00                OSTmrStart
                0x0008fe04                OSTmrStateGet
                0x0008feac                OSTmrRemainGet
                0x0008ffc4                OSTmrDel
                0x000900c0                OSTmrSignal
                0x000900e8                OSTmrNameGet
                0x000901d4                OSTmrCreate
 .text          0x00090370      0x168 ../../bsp/single-rtos_bsp//libucosii_bsp.a(alt_sys_init.o)
                0x000903f8                alt_sys_init
                0x000904b8                alt_irq_init
 .text          0x000904d8       0x3c ../../bsp/single-rtos_bsp//libucosii_bsp.a(altera_avalon_jtag_uart_fd.o)
                0x000904d8                altera_avalon_jtag_uart_ioctl_fd
                0x000904e4                altera_avalon_jtag_uart_close_fd
                0x000904f4                altera_avalon_jtag_uart_write_fd
                0x00090504                altera_avalon_jtag_uart_read_fd
 .text          0x00090514      0x2e0 ../../bsp/single-rtos_bsp//libucosii_bsp.a(altera_avalon_jtag_uart_init.o)
                0x00090514                altera_avalon_jtag_uart_close
                0x000905d4                altera_avalon_jtag_uart_init
 .text          0x000907f4       0x7c ../../bsp/single-rtos_bsp//libucosii_bsp.a(altera_avalon_jtag_uart_ioctl.o)
                0x000907f4                altera_avalon_jtag_uart_ioctl
 .text          0x00090870      0x1ac ../../bsp/single-rtos_bsp//libucosii_bsp.a(altera_avalon_jtag_uart_read.o)
                0x00090870                altera_avalon_jtag_uart_read
 .text          0x00090a1c      0x1b8 ../../bsp/single-rtos_bsp//libucosii_bsp.a(altera_avalon_jtag_uart_write.o)
                0x00090a1c                altera_avalon_jtag_uart_write
 .text          0x00090bd4      0x188 ../../bsp/single-rtos_bsp//libucosii_bsp.a(altera_avalon_mutex.o)
                0x00090bd4                altera_avalon_mutex_close
                0x00090bd8                altera_avalon_mutex_first_lock
                0x00090be8                altera_avalon_mutex_is_mine
                0x00090c38                altera_avalon_mutex_unlock
                0x00090c5c                altera_avalon_mutex_trylock
                0x00090cb8                altera_avalon_mutex_open
                0x00090d10                altera_avalon_mutex_lock
 .text          0x00090d5c       0x6c ../../bsp/single-rtos_bsp//libucosii_bsp.a(altera_avalon_timer_sc.o)
                0x00090d5c                alt_avalon_timer_sc_init
 .text          0x00090dc8       0x90 ../../bsp/single-rtos_bsp//libucosii_bsp.a(alt_alarm_start.o)
                0x00090dc8                alt_alarm_start
 .text          0x00090e58        0x4 ../../bsp/single-rtos_bsp//libucosii_bsp.a(alt_dcache_flush_all.o)
                0x00090e58                alt_dcache_flush_all
 .text          0x00090e5c       0x70 ../../bsp/single-rtos_bsp//libucosii_bsp.a(alt_dev_llist_insert.o)
                0x00090e5c                alt_dev_llist_insert
 .text          0x00090ecc       0x40 ../../bsp/single-rtos_bsp//libucosii_bsp.a(alt_do_ctors.o)
                0x00090ecc                _do_ctors
 .text          0x00090f0c       0x40 ../../bsp/single-rtos_bsp//libucosii_bsp.a(alt_do_dtors.o)
                0x00090f0c                _do_dtors
 .text          0x00090f4c       0x70 ../../bsp/single-rtos_bsp//libucosii_bsp.a(alt_find_dev.o)
                0x00090f4c                alt_find_dev
 .text          0x00090fbc        0x4 ../../bsp/single-rtos_bsp//libucosii_bsp.a(alt_icache_flush_all.o)
                0x00090fbc                alt_icache_flush_all
 .text          0x00090fc0      0x114 ../../bsp/single-rtos_bsp//libucosii_bsp.a(alt_io_redirect.o)
                0x00091048                alt_io_redirect
 .text          0x000910d4       0xa0 ../../bsp/single-rtos_bsp//libucosii_bsp.a(alt_irq_register.o)
                0x000910d4                alt_irq_register
 .text          0x00091174        0x0 ../../bsp/single-rtos_bsp//libucosii_bsp.a(alt_irq_vars.o)
 .text          0x00091174      0x17c ../../bsp/single-rtos_bsp//libucosii_bsp.a(alt_open.o)
                0x00091174                open
 .text          0x000912f0       0xe0 ../../bsp/single-rtos_bsp//libucosii_bsp.a(alt_tick.o)
                0x000912f0                alt_alarm_stop
                0x00091324                alt_tick
 .text          0x000913d0        0x8 ../../bsp/single-rtos_bsp//libucosii_bsp.a(altera_nios2_qsys_irq.o)
                0x000913d0                altera_nios2_qsys_irq_init
 .text          0x000913d8       0xd0 ../../bsp/single-rtos_bsp//libucosii_bsp.a(os_cpu_a.o)
                0x000913d8                OSCtxSw
                0x000913d8                OSIntCtxSw
                0x00091464                OSStartHighRdy
                0x00091484                OSStartTsk
 .text          0x000914a8      0x228 ../../bsp/single-rtos_bsp//libucosii_bsp.a(os_cpu_c.o)
                0x000914a8                OSTaskCreateHook
                0x000914ac                OSTaskDelHook
                0x000914b0                OSTaskSwHook
                0x000914b4                OSTaskStatHook
                0x000914b8                OSInitHookBegin
                0x000914c0                OSInitHookEnd
                0x000914c4                OSTaskIdleHook
                0x000914c8                OSTCBInitHook
                0x000914cc                OSTimeTickHook
                0x00091524                OSTaskStkInit
 .text          0x000916d0       0x9c ../../bsp/single-rtos_bsp//libucosii_bsp.a(alt_find_file.o)
                0x000916d0                alt_find_file
 .text          0x0009176c       0xa4 ../../bsp/single-rtos_bsp//libucosii_bsp.a(alt_get_fd.o)
                0x0009176c                alt_get_fd
 .text          0x00091810        0x0 ../../bsp/single-rtos_bsp//libucosii_bsp.a(alt_irq_entry.o)
 .text          0x00091810        0x0 ../../bsp/single-rtos_bsp//libucosii_bsp.a(alt_irq_handler.o)
 .text          0x00091810        0x0 ../../bsp/single-rtos_bsp//libucosii_bsp.a(alt_exception_entry.o)
 .text          0x00091810       0x14 /opt/altera/13.0sp1/nios2eds/bin/gnu/H-i686-pc-linux-gnu/bin/../lib/gcc/nios2-elf/4.1.2/../../../../nios2-elf/lib/mno-hw-mul/libc.a(lib_a-atexit.o)
                0x00091810                atexit
 .text          0x00091824       0x38 /opt/altera/13.0sp1/nios2eds/bin/gnu/H-i686-pc-linux-gnu/bin/../lib/gcc/nios2-elf/4.1.2/../../../../nios2-elf/lib/mno-hw-mul/libc.a(lib_a-exit.o)
                0x00091824                exit
 .text          0x0009185c       0x74 /opt/altera/13.0sp1/nios2eds/bin/gnu/H-i686-pc-linux-gnu/bin/../lib/gcc/nios2-elf/4.1.2/../../../../nios2-elf/lib/mno-hw-mul/libc.a(lib_a-memcmp.o)
                0x0009185c                memcmp
 .text          0x000918d0      0x134 /opt/altera/13.0sp1/nios2eds/bin/gnu/H-i686-pc-linux-gnu/bin/../lib/gcc/nios2-elf/4.1.2/../../../../nios2-elf/lib/mno-hw-mul/libc.a(lib_a-__atexit.o)
                0x000918d0                __register_exitproc
 .text          0x00091a04      0x1b4 /opt/altera/13.0sp1/nios2eds/bin/gnu/H-i686-pc-linux-gnu/bin/../lib/gcc/nios2-elf/4.1.2/../../../../nios2-elf/lib/mno-hw-mul/libc.a(lib_a-__call_atexit.o)
                0x00091a08                __call_exitprocs
 .text          0x00091bb8       0xa4 /opt/altera/13.0sp1/nios2eds/bin/gnu/H-i686-pc-linux-gnu/bin/../lib/gcc/nios2-elf/4.1.2/mno-hw-mul/libgcc.a(_fixunsdfsi.o)
                0x00091bb8                __fixunsdfsi
 .text          0x00091c5c       0x20 ../../bsp/single-rtos_bsp//libucosii_bsp.a(alt_exit.o)
                0x00091c5c                _exit
 *(.gnu.warning.*)
 *(.fini)
                0x00091c7c                PROVIDE (__etext, ABSOLUTE (.))
                0x00091c7c                PROVIDE (_etext, ABSOLUTE (.))
                0x00091c7c                PROVIDE (etext, ABSOLUTE (.))
 *(.eh_frame_hdr)
                0x00091c7c                . = ALIGN (0x4)
                0x00091c7c                PROVIDE (__preinit_array_start, ABSOLUTE (.))
 *(.preinit_array)
                0x00091c7c                PROVIDE (__preinit_array_end, ABSOLUTE (.))
                0x00091c7c                PROVIDE (__init_array_start, ABSOLUTE (.))
 *(.init_array)
                0x00091c7c                PROVIDE (__init_array_end, ABSOLUTE (.))
                0x00091c7c                PROVIDE (__fini_array_start, ABSOLUTE (.))
 *(.fini_array)
                0x00091c7c                PROVIDE (__fini_array_end, ABSOLUTE (.))
 *(.eh_frame)
 *(.gcc_except_table)
 *(.dynamic)
                0x00091c7c                PROVIDE (__CTOR_LIST__, ABSOLUTE (.))
 *(.ctors)
 *(SORT(.ctors.*))
 .ctors.65535   0x00091c7c        0x4 /opt/altera/13.0sp1/nios2eds/bin/gnu/H-i686-pc-linux-gnu/bin/../lib/gcc/nios2-elf/4.1.2/../../../../nios2-elf/lib/mno-hw-mul/libc.a(lib_a-__call_atexit.o)
                0x00091c80                PROVIDE (__CTOR_END__, ABSOLUTE (.))
                0x00091c80                PROVIDE (__DTOR_LIST__, ABSOLUTE (.))
 *(.dtors)
 *(SORT(.dtors.*))
                0x00091c80                PROVIDE (__DTOR_END__, ABSOLUTE (.))
 *(.jcr)
                0x00091c80                . = ALIGN (0x4)

.rodata         0x00091c80      0x674
                0x00091c80                PROVIDE (__ram_rodata_start, ABSOLUTE (.))
                0x00091c80                . = ALIGN (0x4)
 *(.rodata .rodata.* .gnu.linkonce.r.*)
 .rodata.str1.4
                0x00091c80      0x108 obj/default/src_0/cpu_0.o
 .rodata        0x00091d88       0x64 obj/default/src_0/cpu_0.o
                0x00091d88                xPATTERN
 .rodata        0x00091dec       0x14 /opt/altera/13.0sp1/nios2eds/bin/gnu/H-i686-pc-linux-gnu/bin/../lib/gcc/nios2-elf/4.1.2/mno-hw-mul/libgcc.a(_thenan_df.o)
                0x00091dec                __thenan_df
 .rodata        0x00091e00      0x100 /opt/altera/13.0sp1/nios2eds/bin/gnu/H-i686-pc-linux-gnu/bin/../lib/gcc/nios2-elf/4.1.2/mno-hw-mul/libgcc.a(_clz.o)
                0x00091e00                __clz_tab
 .rodata.str1.4
                0x00091f00        0x2 /opt/altera/13.0sp1/nios2eds/bin/gnu/H-i686-pc-linux-gnu/bin/../lib/gcc/nios2-elf/4.1.2/../../../../nios2-elf/lib/mno-hw-mul/libc.a(lib_a-puts.o)
                                  0x4 (size before relaxing)
 *fill*         0x00091f02        0x2 00
 .rodata.str1.4
                0x00091f04       0x5e /opt/altera/13.0sp1/nios2eds/bin/gnu/H-i686-pc-linux-gnu/bin/../lib/gcc/nios2-elf/4.1.2/../../../../nios2-elf/lib/mno-hw-mul/libc.a(lib_a-vfprintf.o)
                                 0x60 (size before relaxing)
 .rodata        0x00091f62       0x20 /opt/altera/13.0sp1/nios2eds/bin/gnu/H-i686-pc-linux-gnu/bin/../lib/gcc/nios2-elf/4.1.2/../../../../nios2-elf/lib/mno-hw-mul/libc.a(lib_a-vfprintf.o)
 *fill*         0x00091f82        0x2 00
 .rodata.str1.4
                0x00091f84       0x10 /opt/altera/13.0sp1/nios2eds/bin/gnu/H-i686-pc-linux-gnu/bin/../lib/gcc/nios2-elf/4.1.2/../../../../nios2-elf/lib/mno-hw-mul/libc.a(lib_a-dtoa.o)
                                 0x14 (size before relaxing)
 .rodata.str1.4
                0x00091f94        0x2 /opt/altera/13.0sp1/nios2eds/bin/gnu/H-i686-pc-linux-gnu/bin/../lib/gcc/nios2-elf/4.1.2/../../../../nios2-elf/lib/mno-hw-mul/libc.a(lib_a-impure.o)
                                  0x4 (size before relaxing)
 *fill*         0x00091f96        0x2 00
 .rodata.str1.4
                0x00091f98        0xf /opt/altera/13.0sp1/nios2eds/bin/gnu/H-i686-pc-linux-gnu/bin/../lib/gcc/nios2-elf/4.1.2/../../../../nios2-elf/lib/mno-hw-mul/libc.a(lib_a-locale.o)
                                 0x18 (size before relaxing)
 *fill*         0x00091fa7        0x1 00
 .rodata        0x00091fa8       0x30 /opt/altera/13.0sp1/nios2eds/bin/gnu/H-i686-pc-linux-gnu/bin/../lib/gcc/nios2-elf/4.1.2/../../../../nios2-elf/lib/mno-hw-mul/libc.a(lib_a-locale.o)
 .rodata        0x00091fd8      0x124 /opt/altera/13.0sp1/nios2eds/bin/gnu/H-i686-pc-linux-gnu/bin/../lib/gcc/nios2-elf/4.1.2/../../../../nios2-elf/lib/mno-hw-mul/libc.a(lib_a-mprec.o)
                0x00091fd8                __mprec_tens
                0x000920a0                __mprec_bigtens
                0x000920c8                __mprec_tinytens
 .rodata.str1.4
                0x000920fc        0xa ../../bsp/single-rtos_bsp//libucosii_bsp.a(alt_dev.o)
                                  0xc (size before relaxing)
 *fill*         0x00092106        0x2 00
 .rodata.str1.4
                0x00092108       0x11 ../../bsp/single-rtos_bsp//libucosii_bsp.a(alt_main.o)
                                 0x14 (size before relaxing)
 *fill*         0x00092119        0x3 00
 .rodata.str1.4
                0x0009211c       0x1e ../../bsp/single-rtos_bsp//libucosii_bsp.a(os_core.o)
                                 0x20 (size before relaxing)
 .rodata        0x0009213a      0x100 ../../bsp/single-rtos_bsp//libucosii_bsp.a(os_core.o)
                0x0009213a                OSUnMapTbl
 *fill*         0x0009223a        0x2 00
 .rodata.str1.4
                0x0009223c       0x35 ../../bsp/single-rtos_bsp//libucosii_bsp.a(os_tmr.o)
                                 0x38 (size before relaxing)
 *fill*         0x00092271        0x3 00
 .rodata.str1.4
                0x00092274       0x80 ../../bsp/single-rtos_bsp//libucosii_bsp.a(alt_sys_init.o)
                                 0x94 (size before relaxing)
 .rodata.str1.4
                0x00000000        0x4 ../../bsp/single-rtos_bsp//libucosii_bsp.a(os_cpu_c.o)
 *(.rodata1)
                0x000922f4                . = ALIGN (0x4)
                0x000922f4                PROVIDE (__ram_rodata_end, ABSOLUTE (.))
                0x00091c80                PROVIDE (__flash_rodata_start, LOADADDR (.rodata))

.rwdata         0x000922f4     0xdc18 load address 0x0009ff0c
                0x000922f4                PROVIDE (__ram_rwdata_start, ABSOLUTE (.))
                0x000922f4                . = ALIGN (0x4)
 *(.got.plt)
 *(.got)
 *(.data1)
 *(.data .data.* .gnu.linkonce.d.*)
 .data          0x000922f4        0x0 ../../bsp/single-rtos_bsp//obj/HAL/src/crt0.o
 .data          0x000922f4     0xc02c obj/default/src_0/cpu_0.o
                0x000922f4                asciiChars
                0x00092304                test_ppm_1
                0x00095307                test_ppm_2
                0x0009830a                test_ppm_3
                0x0009b30d                test_ppm_4
                0x0009e310                image_sequence
 .data          0x0009e320        0x0 /opt/altera/13.0sp1/nios2eds/bin/gnu/H-i686-pc-linux-gnu/bin/../lib/gcc/nios2-elf/4.1.2/mno-hw-mul/libgcc.a(_div_df.o)
 .data          0x0009e320        0x0 /opt/altera/13.0sp1/nios2eds/bin/gnu/H-i686-pc-linux-gnu/bin/../lib/gcc/nios2-elf/4.1.2/mno-hw-mul/libgcc.a(_thenan_df.o)
 .data          0x0009e320        0x0 /opt/altera/13.0sp1/nios2eds/bin/gnu/H-i686-pc-linux-gnu/bin/../lib/gcc/nios2-elf/4.1.2/mno-hw-mul/libgcc.a(_usi_to_df.o)
 .data          0x0009e320        0x0 /opt/altera/13.0sp1/nios2eds/bin/gnu/H-i686-pc-linux-gnu/bin/../lib/gcc/nios2-elf/4.1.2/mno-hw-mul/libgcc.a(lib2-divmod.o)
 .data          0x0009e320        0x0 /opt/altera/13.0sp1/nios2eds/bin/gnu/H-i686-pc-linux-gnu/bin/../lib/gcc/nios2-elf/4.1.2/mno-hw-mul/libgcc.a(lib2-mul.o)
 .data          0x0009e320        0x0 /opt/altera/13.0sp1/nios2eds/bin/gnu/H-i686-pc-linux-gnu/bin/../lib/gcc/nios2-elf/4.1.2/mno-hw-mul/libgcc.a(_clzsi2.o)
 .data          0x0009e320        0x0 /opt/altera/13.0sp1/nios2eds/bin/gnu/H-i686-pc-linux-gnu/bin/../lib/gcc/nios2-elf/4.1.2/mno-hw-mul/libgcc.a(_pack_df.o)
 .data          0x0009e320        0x0 /opt/altera/13.0sp1/nios2eds/bin/gnu/H-i686-pc-linux-gnu/bin/../lib/gcc/nios2-elf/4.1.2/mno-hw-mul/libgcc.a(_unpack_df.o)
 .data          0x0009e320        0x0 /opt/altera/13.0sp1/nios2eds/bin/gnu/H-i686-pc-linux-gnu/bin/../lib/gcc/nios2-elf/4.1.2/mno-hw-mul/libgcc.a(_clz.o)
 .data          0x0009e320        0x0 /opt/altera/13.0sp1/nios2eds/bin/gnu/H-i686-pc-linux-gnu/bin/../lib/gcc/nios2-elf/4.1.2/../../../../nios2-elf/lib/mno-hw-mul/libc.a(lib_a-printf.o)
 .data          0x0009e320        0x0 /opt/altera/13.0sp1/nios2eds/bin/gnu/H-i686-pc-linux-gnu/bin/../lib/gcc/nios2-elf/4.1.2/../../../../nios2-elf/lib/mno-hw-mul/libc.a(lib_a-putchar.o)
 .data          0x0009e320        0x0 /opt/altera/13.0sp1/nios2eds/bin/gnu/H-i686-pc-linux-gnu/bin/../lib/gcc/nios2-elf/4.1.2/../../../../nios2-elf/lib/mno-hw-mul/libc.a(lib_a-puts.o)
 .data          0x0009e320        0x0 /opt/altera/13.0sp1/nios2eds/bin/gnu/H-i686-pc-linux-gnu/bin/../lib/gcc/nios2-elf/4.1.2/../../../../nios2-elf/lib/mno-hw-mul/libc.a(lib_a-strlen.o)
 .data          0x0009e320        0x0 /opt/altera/13.0sp1/nios2eds/bin/gnu/H-i686-pc-linux-gnu/bin/../lib/gcc/nios2-elf/4.1.2/../../../../nios2-elf/lib/mno-hw-mul/libc.a(lib_a-vfprintf.o)
 .data          0x0009e320        0x0 /opt/altera/13.0sp1/nios2eds/bin/gnu/H-i686-pc-linux-gnu/bin/../lib/gcc/nios2-elf/4.1.2/../../../../nios2-elf/lib/mno-hw-mul/libc.a(lib_a-wsetup.o)
 .data          0x0009e320        0x0 /opt/altera/13.0sp1/nios2eds/bin/gnu/H-i686-pc-linux-gnu/bin/../lib/gcc/nios2-elf/4.1.2/../../../../nios2-elf/lib/mno-hw-mul/libc.a(lib_a-dtoa.o)
 .data          0x0009e320        0x0 /opt/altera/13.0sp1/nios2eds/bin/gnu/H-i686-pc-linux-gnu/bin/../lib/gcc/nios2-elf/4.1.2/../../../../nios2-elf/lib/mno-hw-mul/libc.a(lib_a-fflush.o)
 .data          0x0009e320        0x0 /opt/altera/13.0sp1/nios2eds/bin/gnu/H-i686-pc-linux-gnu/bin/../lib/gcc/nios2-elf/4.1.2/../../../../nios2-elf/lib/mno-hw-mul/libc.a(lib_a-findfp.o)
 .data          0x0009e320        0x0 /opt/altera/13.0sp1/nios2eds/bin/gnu/H-i686-pc-linux-gnu/bin/../lib/gcc/nios2-elf/4.1.2/../../../../nios2-elf/lib/mno-hw-mul/libc.a(lib_a-freer.o)
 .data          0x0009e320        0x0 /opt/altera/13.0sp1/nios2eds/bin/gnu/H-i686-pc-linux-gnu/bin/../lib/gcc/nios2-elf/4.1.2/../../../../nios2-elf/lib/mno-hw-mul/libc.a(lib_a-fvwrite.o)
 .data          0x0009e320        0x0 /opt/altera/13.0sp1/nios2eds/bin/gnu/H-i686-pc-linux-gnu/bin/../lib/gcc/nios2-elf/4.1.2/../../../../nios2-elf/lib/mno-hw-mul/libc.a(lib_a-fwalk.o)
 .data          0x0009e320      0x400 /opt/altera/13.0sp1/nios2eds/bin/gnu/H-i686-pc-linux-gnu/bin/../lib/gcc/nios2-elf/4.1.2/../../../../nios2-elf/lib/mno-hw-mul/libc.a(lib_a-impure.o)
 .data          0x0009e720        0xc /opt/altera/13.0sp1/nios2eds/bin/gnu/H-i686-pc-linux-gnu/bin/../lib/gcc/nios2-elf/4.1.2/../../../../nios2-elf/lib/mno-hw-mul/libc.a(lib_a-locale.o)
                0x0009e720                __lc_ctype
 .data          0x0009e72c        0x0 /opt/altera/13.0sp1/nios2eds/bin/gnu/H-i686-pc-linux-gnu/bin/../lib/gcc/nios2-elf/4.1.2/../../../../nios2-elf/lib/mno-hw-mul/libc.a(lib_a-makebuf.o)
 .data          0x0009e72c      0x408 /opt/altera/13.0sp1/nios2eds/bin/gnu/H-i686-pc-linux-gnu/bin/../lib/gcc/nios2-elf/4.1.2/../../../../nios2-elf/lib/mno-hw-mul/libc.a(lib_a-mallocr.o)
                0x0009e72c                __malloc_av_
 .data          0x0009eb34        0x0 /opt/altera/13.0sp1/nios2eds/bin/gnu/H-i686-pc-linux-gnu/bin/../lib/gcc/nios2-elf/4.1.2/../../../../nios2-elf/lib/mno-hw-mul/libc.a(lib_a-memchr.o)
 .data          0x0009eb34        0x0 /opt/altera/13.0sp1/nios2eds/bin/gnu/H-i686-pc-linux-gnu/bin/../lib/gcc/nios2-elf/4.1.2/../../../../nios2-elf/lib/mno-hw-mul/libc.a(lib_a-memcpy.o)
 .data          0x0009eb34        0x0 /opt/altera/13.0sp1/nios2eds/bin/gnu/H-i686-pc-linux-gnu/bin/../lib/gcc/nios2-elf/4.1.2/../../../../nios2-elf/lib/mno-hw-mul/libc.a(lib_a-memmove.o)
 .data          0x0009eb34        0x0 /opt/altera/13.0sp1/nios2eds/bin/gnu/H-i686-pc-linux-gnu/bin/../lib/gcc/nios2-elf/4.1.2/../../../../nios2-elf/lib/mno-hw-mul/libc.a(lib_a-memset.o)
 .data          0x0009eb34        0x0 /opt/altera/13.0sp1/nios2eds/bin/gnu/H-i686-pc-linux-gnu/bin/../lib/gcc/nios2-elf/4.1.2/../../../../nios2-elf/lib/mno-hw-mul/libc.a(lib_a-mprec.o)
 .data          0x0009eb34        0x0 /opt/altera/13.0sp1/nios2eds/bin/gnu/H-i686-pc-linux-gnu/bin/../lib/gcc/nios2-elf/4.1.2/../../../../nios2-elf/lib/mno-hw-mul/libc.a(lib_a-putc.o)
 .data          0x0009eb34        0x0 /opt/altera/13.0sp1/nios2eds/bin/gnu/H-i686-pc-linux-gnu/bin/../lib/gcc/nios2-elf/4.1.2/../../../../nios2-elf/lib/mno-hw-mul/libc.a(lib_a-reallocr.o)
 .data          0x0009eb34        0x0 /opt/altera/13.0sp1/nios2eds/bin/gnu/H-i686-pc-linux-gnu/bin/../lib/gcc/nios2-elf/4.1.2/../../../../nios2-elf/lib/mno-hw-mul/libc.a(lib_a-s_isinfd.o)
 .data          0x0009eb34        0x0 /opt/altera/13.0sp1/nios2eds/bin/gnu/H-i686-pc-linux-gnu/bin/../lib/gcc/nios2-elf/4.1.2/../../../../nios2-elf/lib/mno-hw-mul/libc.a(lib_a-s_isnand.o)
 .data          0x0009eb34        0x0 /opt/altera/13.0sp1/nios2eds/bin/gnu/H-i686-pc-linux-gnu/bin/../lib/gcc/nios2-elf/4.1.2/../../../../nios2-elf/lib/mno-hw-mul/libc.a(lib_a-sbrkr.o)
 .data          0x0009eb34        0x0 /opt/altera/13.0sp1/nios2eds/bin/gnu/H-i686-pc-linux-gnu/bin/../lib/gcc/nios2-elf/4.1.2/../../../../nios2-elf/lib/mno-hw-mul/libc.a(lib_a-stdio.o)
 .data          0x0009eb34        0x0 /opt/altera/13.0sp1/nios2eds/bin/gnu/H-i686-pc-linux-gnu/bin/../lib/gcc/nios2-elf/4.1.2/../../../../nios2-elf/lib/mno-hw-mul/libc.a(lib_a-strcmp.o)
 .data          0x0009eb34        0x0 /opt/altera/13.0sp1/nios2eds/bin/gnu/H-i686-pc-linux-gnu/bin/../lib/gcc/nios2-elf/4.1.2/../../../../nios2-elf/lib/mno-hw-mul/libc.a(lib_a-wbuf.o)
 .data          0x0009eb34        0x0 /opt/altera/13.0sp1/nios2eds/bin/gnu/H-i686-pc-linux-gnu/bin/../lib/gcc/nios2-elf/4.1.2/../../../../nios2-elf/lib/mno-hw-mul/libc.a(lib_a-writer.o)
 .data          0x0009eb34        0x0 /opt/altera/13.0sp1/nios2eds/bin/gnu/H-i686-pc-linux-gnu/bin/../lib/gcc/nios2-elf/4.1.2/../../../../nios2-elf/lib/mno-hw-mul/libc.a(lib_a-callocr.o)
 .data          0x0009eb34        0x0 /opt/altera/13.0sp1/nios2eds/bin/gnu/H-i686-pc-linux-gnu/bin/../lib/gcc/nios2-elf/4.1.2/../../../../nios2-elf/lib/mno-hw-mul/libc.a(lib_a-closer.o)
 .data          0x0009eb34        0x0 /opt/altera/13.0sp1/nios2eds/bin/gnu/H-i686-pc-linux-gnu/bin/../lib/gcc/nios2-elf/4.1.2/../../../../nios2-elf/lib/mno-hw-mul/libc.a(lib_a-fclose.o)
 .data          0x0009eb34        0x0 /opt/altera/13.0sp1/nios2eds/bin/gnu/H-i686-pc-linux-gnu/bin/../lib/gcc/nios2-elf/4.1.2/../../../../nios2-elf/lib/mno-hw-mul/libc.a(lib_a-fstatr.o)
 .data          0x0009eb34        0x0 /opt/altera/13.0sp1/nios2eds/bin/gnu/H-i686-pc-linux-gnu/bin/../lib/gcc/nios2-elf/4.1.2/../../../../nios2-elf/lib/mno-hw-mul/libc.a(lib_a-int_errno.o)
 .data          0x0009eb34        0x0 /opt/altera/13.0sp1/nios2eds/bin/gnu/H-i686-pc-linux-gnu/bin/../lib/gcc/nios2-elf/4.1.2/../../../../nios2-elf/lib/mno-hw-mul/libc.a(lib_a-isattyr.o)
 .data          0x0009eb34        0x0 /opt/altera/13.0sp1/nios2eds/bin/gnu/H-i686-pc-linux-gnu/bin/../lib/gcc/nios2-elf/4.1.2/../../../../nios2-elf/lib/mno-hw-mul/libc.a(lib_a-lseekr.o)
 .data          0x0009eb34        0x0 /opt/altera/13.0sp1/nios2eds/bin/gnu/H-i686-pc-linux-gnu/bin/../lib/gcc/nios2-elf/4.1.2/../../../../nios2-elf/lib/mno-hw-mul/libc.a(lib_a-readr.o)
 .data          0x0009eb34        0x0 /opt/altera/13.0sp1/nios2eds/bin/gnu/H-i686-pc-linux-gnu/bin/../lib/gcc/nios2-elf/4.1.2/mno-hw-mul/libgcc.a(_udivdi3.o)
 .data          0x0009eb34        0x0 /opt/altera/13.0sp1/nios2eds/bin/gnu/H-i686-pc-linux-gnu/bin/../lib/gcc/nios2-elf/4.1.2/mno-hw-mul/libgcc.a(_umoddi3.o)
 .data          0x0009eb34        0x0 /opt/altera/13.0sp1/nios2eds/bin/gnu/H-i686-pc-linux-gnu/bin/../lib/gcc/nios2-elf/4.1.2/mno-hw-mul/libgcc.a(_addsub_df.o)
 .data          0x0009eb34        0x0 /opt/altera/13.0sp1/nios2eds/bin/gnu/H-i686-pc-linux-gnu/bin/../lib/gcc/nios2-elf/4.1.2/mno-hw-mul/libgcc.a(_mul_df.o)
 .data          0x0009eb34        0x0 /opt/altera/13.0sp1/nios2eds/bin/gnu/H-i686-pc-linux-gnu/bin/../lib/gcc/nios2-elf/4.1.2/mno-hw-mul/libgcc.a(_eq_df.o)
 .data          0x0009eb34        0x0 /opt/altera/13.0sp1/nios2eds/bin/gnu/H-i686-pc-linux-gnu/bin/../lib/gcc/nios2-elf/4.1.2/mno-hw-mul/libgcc.a(_ne_df.o)
 .data          0x0009eb34        0x0 /opt/altera/13.0sp1/nios2eds/bin/gnu/H-i686-pc-linux-gnu/bin/../lib/gcc/nios2-elf/4.1.2/mno-hw-mul/libgcc.a(_gt_df.o)
 .data          0x0009eb34        0x0 /opt/altera/13.0sp1/nios2eds/bin/gnu/H-i686-pc-linux-gnu/bin/../lib/gcc/nios2-elf/4.1.2/mno-hw-mul/libgcc.a(_ge_df.o)
 .data          0x0009eb34        0x0 /opt/altera/13.0sp1/nios2eds/bin/gnu/H-i686-pc-linux-gnu/bin/../lib/gcc/nios2-elf/4.1.2/mno-hw-mul/libgcc.a(_lt_df.o)
 .data          0x0009eb34        0x0 /opt/altera/13.0sp1/nios2eds/bin/gnu/H-i686-pc-linux-gnu/bin/../lib/gcc/nios2-elf/4.1.2/mno-hw-mul/libgcc.a(_si_to_df.o)
 .data          0x0009eb34        0x0 /opt/altera/13.0sp1/nios2eds/bin/gnu/H-i686-pc-linux-gnu/bin/../lib/gcc/nios2-elf/4.1.2/mno-hw-mul/libgcc.a(_df_to_si.o)
 .data          0x0009eb34        0x0 /opt/altera/13.0sp1/nios2eds/bin/gnu/H-i686-pc-linux-gnu/bin/../lib/gcc/nios2-elf/4.1.2/mno-hw-mul/libgcc.a(_muldi3.o)
 .data          0x0009eb34        0x0 /opt/altera/13.0sp1/nios2eds/bin/gnu/H-i686-pc-linux-gnu/bin/../lib/gcc/nios2-elf/4.1.2/mno-hw-mul/libgcc.a(_fpcmp_parts_df.o)
 .data          0x0009eb34        0x0 ../../bsp/single-rtos_bsp//libucosii_bsp.a(alt_close.o)
 .data          0x0009eb34      0x1a8 ../../bsp/single-rtos_bsp//libucosii_bsp.a(alt_dev.o)
                0x0009eb34                alt_dev_null
                0x0009eb5c                alt_fd_list
 .data          0x0009ecdc        0x0 ../../bsp/single-rtos_bsp//libucosii_bsp.a(alt_errno.o)
 .data          0x0009ecdc        0x0 ../../bsp/single-rtos_bsp//libucosii_bsp.a(alt_fstat.o)
 .data          0x0009ecdc        0x0 ../../bsp/single-rtos_bsp//libucosii_bsp.a(alt_isatty.o)
 .data          0x0009ecdc        0x0 ../../bsp/single-rtos_bsp//libucosii_bsp.a(alt_load.o)
 .data          0x0009ecdc        0x0 ../../bsp/single-rtos_bsp//libucosii_bsp.a(alt_lseek.o)
 .data          0x0009ecdc        0x0 ../../bsp/single-rtos_bsp//libucosii_bsp.a(alt_main.o)
 .data          0x0009ecdc        0x0 ../../bsp/single-rtos_bsp//libucosii_bsp.a(alt_read.o)
 .data          0x0009ecdc        0x0 ../../bsp/single-rtos_bsp//libucosii_bsp.a(alt_release_fd.o)
 .data          0x0009ecdc        0x0 ../../bsp/single-rtos_bsp//libucosii_bsp.a(alt_sbrk.o)
 .data          0x0009ecdc        0x0 ../../bsp/single-rtos_bsp//libucosii_bsp.a(alt_write.o)
 .data          0x0009ecdc        0x0 ../../bsp/single-rtos_bsp//libucosii_bsp.a(alt_env_lock.o)
 .data          0x0009ecdc        0x0 ../../bsp/single-rtos_bsp//libucosii_bsp.a(alt_malloc_lock.o)
 .data          0x0009ecdc        0x0 ../../bsp/single-rtos_bsp//libucosii_bsp.a(os_core.o)
 .data          0x0009ecdc        0x0 ../../bsp/single-rtos_bsp//libucosii_bsp.a(os_dbg.o)
 .data          0x0009ecdc        0x0 ../../bsp/single-rtos_bsp//libucosii_bsp.a(os_flag.o)
 .data          0x0009ecdc        0x0 ../../bsp/single-rtos_bsp//libucosii_bsp.a(os_mem.o)
 .data          0x0009ecdc        0x0 ../../bsp/single-rtos_bsp//libucosii_bsp.a(os_q.o)
 .data          0x0009ecdc        0x0 ../../bsp/single-rtos_bsp//libucosii_bsp.a(os_sem.o)
 .data          0x0009ecdc        0x0 ../../bsp/single-rtos_bsp//libucosii_bsp.a(os_task.o)
 .data          0x0009ecdc        0x0 ../../bsp/single-rtos_bsp//libucosii_bsp.a(os_time.o)
 .data          0x0009ecdc        0x0 ../../bsp/single-rtos_bsp//libucosii_bsp.a(os_tmr.o)
 .data          0x0009ecdc     0x1154 ../../bsp/single-rtos_bsp//libucosii_bsp.a(alt_sys_init.o)
 .data          0x0009fe30        0x0 ../../bsp/single-rtos_bsp//libucosii_bsp.a(altera_avalon_jtag_uart_fd.o)
 .data          0x0009fe30        0x0 ../../bsp/single-rtos_bsp//libucosii_bsp.a(altera_avalon_jtag_uart_init.o)
 .data          0x0009fe30        0x0 ../../bsp/single-rtos_bsp//libucosii_bsp.a(altera_avalon_jtag_uart_ioctl.o)
 .data          0x0009fe30        0x0 ../../bsp/single-rtos_bsp//libucosii_bsp.a(altera_avalon_jtag_uart_read.o)
 .data          0x0009fe30        0x0 ../../bsp/single-rtos_bsp//libucosii_bsp.a(altera_avalon_jtag_uart_write.o)
 .data          0x0009fe30        0x0 ../../bsp/single-rtos_bsp//libucosii_bsp.a(altera_avalon_mutex.o)
 .data          0x0009fe30        0x0 ../../bsp/single-rtos_bsp//libucosii_bsp.a(altera_avalon_timer_sc.o)
 .data          0x0009fe30        0x0 ../../bsp/single-rtos_bsp//libucosii_bsp.a(alt_alarm_start.o)
 .data          0x0009fe30        0x0 ../../bsp/single-rtos_bsp//libucosii_bsp.a(alt_dcache_flush_all.o)
 .data          0x0009fe30        0x0 ../../bsp/single-rtos_bsp//libucosii_bsp.a(alt_dev_llist_insert.o)
 .data          0x0009fe30        0x0 ../../bsp/single-rtos_bsp//libucosii_bsp.a(alt_do_ctors.o)
 .data          0x0009fe30        0x0 ../../bsp/single-rtos_bsp//libucosii_bsp.a(alt_do_dtors.o)
 .data          0x0009fe30        0x0 ../../bsp/single-rtos_bsp//libucosii_bsp.a(alt_find_dev.o)
 .data          0x0009fe30        0x0 ../../bsp/single-rtos_bsp//libucosii_bsp.a(alt_icache_flush_all.o)
 .data          0x0009fe30        0x0 ../../bsp/single-rtos_bsp//libucosii_bsp.a(alt_io_redirect.o)
 .data          0x0009fe30        0x0 ../../bsp/single-rtos_bsp//libucosii_bsp.a(alt_irq_register.o)
 .data          0x0009fe30        0x0 ../../bsp/single-rtos_bsp//libucosii_bsp.a(alt_irq_vars.o)
 .data          0x0009fe30        0x0 ../../bsp/single-rtos_bsp//libucosii_bsp.a(alt_open.o)
 .data          0x0009fe30        0x0 ../../bsp/single-rtos_bsp//libucosii_bsp.a(alt_tick.o)
 .data          0x0009fe30        0x0 ../../bsp/single-rtos_bsp//libucosii_bsp.a(altera_nios2_qsys_irq.o)
 .data          0x0009fe30        0x0 ../../bsp/single-rtos_bsp//libucosii_bsp.a(os_cpu_a.o)
 .data          0x0009fe30        0x0 ../../bsp/single-rtos_bsp//libucosii_bsp.a(os_cpu_c.o)
 .data          0x0009fe30        0x0 ../../bsp/single-rtos_bsp//libucosii_bsp.a(alt_find_file.o)
 .data          0x0009fe30        0x0 ../../bsp/single-rtos_bsp//libucosii_bsp.a(alt_get_fd.o)
 .data          0x0009fe30        0x0 ../../bsp/single-rtos_bsp//libucosii_bsp.a(alt_irq_entry.o)
 .data          0x0009fe30        0x0 ../../bsp/single-rtos_bsp//libucosii_bsp.a(alt_irq_handler.o)
 .data          0x0009fe30        0x0 ../../bsp/single-rtos_bsp//libucosii_bsp.a(alt_exception_entry.o)
 .data          0x0009fe30        0x0 /opt/altera/13.0sp1/nios2eds/bin/gnu/H-i686-pc-linux-gnu/bin/../lib/gcc/nios2-elf/4.1.2/../../../../nios2-elf/lib/mno-hw-mul/libc.a(lib_a-atexit.o)
 .data          0x0009fe30        0x0 /opt/altera/13.0sp1/nios2eds/bin/gnu/H-i686-pc-linux-gnu/bin/../lib/gcc/nios2-elf/4.1.2/../../../../nios2-elf/lib/mno-hw-mul/libc.a(lib_a-exit.o)
 .data          0x0009fe30        0x0 /opt/altera/13.0sp1/nios2eds/bin/gnu/H-i686-pc-linux-gnu/bin/../lib/gcc/nios2-elf/4.1.2/../../../../nios2-elf/lib/mno-hw-mul/libc.a(lib_a-memcmp.o)
 .data          0x0009fe30        0x0 /opt/altera/13.0sp1/nios2eds/bin/gnu/H-i686-pc-linux-gnu/bin/../lib/gcc/nios2-elf/4.1.2/../../../../nios2-elf/lib/mno-hw-mul/libc.a(lib_a-__atexit.o)
 .data          0x0009fe30        0x0 /opt/altera/13.0sp1/nios2eds/bin/gnu/H-i686-pc-linux-gnu/bin/../lib/gcc/nios2-elf/4.1.2/../../../../nios2-elf/lib/mno-hw-mul/libc.a(lib_a-__call_atexit.o)
 .data          0x0009fe30        0x0 /opt/altera/13.0sp1/nios2eds/bin/gnu/H-i686-pc-linux-gnu/bin/../lib/gcc/nios2-elf/4.1.2/mno-hw-mul/libgcc.a(_fixunsdfsi.o)
 .data          0x0009fe30        0x0 ../../bsp/single-rtos_bsp//libucosii_bsp.a(alt_exit.o)
                0x000a7e30                _gp = ABSOLUTE ((. + 0x8000))
                0x000a7e30                PROVIDE (gp, _gp)
 *(.rwdata .rwdata.*)
 *(.sdata .sdata.* .gnu.linkonce.s.*)
 .sdata         0x0009fe30       0x18 obj/default/src_0/cpu_0.o
                0x0009fe30                NR_ASCII_CHARS
                0x0009fe31                sequence_length
                0x0009fe34                previousX
                0x0009fe38                previousY
                0x0009fe3c                dSPAN
                0x0009fe40                CROPSIZE
                0x0009fe44                CROPSIZE_4
 .sdata         0x0009fe48        0x8 /opt/altera/13.0sp1/nios2eds/bin/gnu/H-i686-pc-linux-gnu/bin/../lib/gcc/nios2-elf/4.1.2/../../../../nios2-elf/lib/mno-hw-mul/libc.a(lib_a-impure.o)
                0x0009fe48                _impure_ptr
                0x0009fe4c                _global_impure_ptr
 .sdata         0x0009fe50        0x8 /opt/altera/13.0sp1/nios2eds/bin/gnu/H-i686-pc-linux-gnu/bin/../lib/gcc/nios2-elf/4.1.2/../../../../nios2-elf/lib/mno-hw-mul/libc.a(lib_a-locale.o)
                0x0009fe50                __mb_cur_max
 .sdata         0x0009fe58        0x8 /opt/altera/13.0sp1/nios2eds/bin/gnu/H-i686-pc-linux-gnu/bin/../lib/gcc/nios2-elf/4.1.2/../../../../nios2-elf/lib/mno-hw-mul/libc.a(lib_a-mallocr.o)
                0x0009fe58                __malloc_trim_threshold
                0x0009fe5c                __malloc_sbrk_base
 .sdata         0x0009fe60       0x14 ../../bsp/single-rtos_bsp//libucosii_bsp.a(alt_dev.o)
                0x0009fe60                alt_fs_list
                0x0009fe68                alt_dev_list
                0x0009fe70                alt_max_fd
 .sdata         0x0009fe74        0x4 ../../bsp/single-rtos_bsp//libucosii_bsp.a(alt_errno.o)
                0x0009fe74                alt_errno
 .sdata         0x0009fe78        0x4 ../../bsp/single-rtos_bsp//libucosii_bsp.a(alt_sbrk.o)
 .sdata         0x0009fe7c        0x4 ../../bsp/single-rtos_bsp//libucosii_bsp.a(alt_env_lock.o)
 .sdata         0x0009fe80        0x4 ../../bsp/single-rtos_bsp//libucosii_bsp.a(alt_malloc_lock.o)
 .sdata         0x0009fe84       0x74 ../../bsp/single-rtos_bsp//libucosii_bsp.a(os_dbg.o)
                0x0009fe84                OSDebugEn
                0x0009fe88                OSEndiannessTest
                0x0009fe8c                OSEventEn
                0x0009fe8e                OSEventMax
                0x0009fe90                OSEventNameSize
                0x0009fe92                OSEventSize
                0x0009fe94                OSEventTblSize
                0x0009fe96                OSEventMultiEn
                0x0009fe98                OSFlagEn
                0x0009fe9a                OSFlagGrpSize
                0x0009fe9c                OSFlagNodeSize
                0x0009fe9e                OSFlagWidth
                0x0009fea0                OSFlagMax
                0x0009fea2                OSFlagNameSize
                0x0009fea4                OSLowestPrio
                0x0009fea6                OSMboxEn
                0x0009fea8                OSMemEn
                0x0009feaa                OSMemMax
                0x0009feac                OSMemNameSize
                0x0009feae                OSMemSize
                0x0009feb0                OSMemTblSize
                0x0009feb2                OSMutexEn
                0x0009feb4                OSPtrSize
                0x0009feb6                OSQEn
                0x0009feb8                OSQMax
                0x0009feba                OSQSize
                0x0009febc                OSRdyTblSize
                0x0009febe                OSSemEn
                0x0009fec0                OSStkWidth
                0x0009fec2                OSTaskCreateEn
                0x0009fec4                OSTaskCreateExtEn
                0x0009fec6                OSTaskDelEn
                0x0009fec8                OSTaskIdleStkSize
                0x0009feca                OSTaskProfileEn
                0x0009fecc                OSTaskMax
                0x0009fece                OSTaskNameSize
                0x0009fed0                OSTaskStatEn
                0x0009fed2                OSTaskStatStkSize
                0x0009fed4                OSTaskStatStkChkEn
                0x0009fed6                OSTaskSwHookEn
                0x0009fed8                OSTCBPrioTblMax
                0x0009feda                OSTCBSize
                0x0009fedc                OSTicksPerSec
                0x0009fede                OSTimeTickHookEn
                0x0009fee0                OSVersionNbr
                0x0009fee2                OSTmrEn
                0x0009fee4                OSTmrCfgMax
                0x0009fee6                OSTmrCfgNameSize
                0x0009fee8                OSTmrCfgWheelSize
                0x0009feea                OSTmrCfgTicksPerSec
                0x0009feec                OSTmrSize
                0x0009feee                OSTmrTblSize
                0x0009fef0                OSTmrWheelSize
                0x0009fef2                OSTmrWheelTblSize
                0x0009fef4                OSDataSize
 .sdata         0x0009fef8        0x8 ../../bsp/single-rtos_bsp//libucosii_bsp.a(altera_avalon_mutex.o)
                0x0009fef8                alt_mutex_list
 .sdata         0x0009ff00        0x4 ../../bsp/single-rtos_bsp//libucosii_bsp.a(alt_irq_vars.o)
                0x0009ff00                alt_priority_mask
 .sdata         0x0009ff04        0x8 ../../bsp/single-rtos_bsp//libucosii_bsp.a(alt_tick.o)
                0x0009ff04                alt_alarm_list
 *(.sdata2 .sdata2.* .gnu.linkonce.s2.*)
                0x0009ff0c                . = ALIGN (0x4)
                0x0009ff0c                _edata = ABSOLUTE (.)
                0x0009ff0c                PROVIDE (edata, ABSOLUTE (.))
                0x0009ff0c                PROVIDE (__ram_rwdata_end, ABSOLUTE (.))
                0x0009ff0c                PROVIDE (__flash_rwdata_start, LOADADDR (.rwdata))

.bss            0x000adb24    0x17564
                0x000adb24                __bss_start = ABSOLUTE (.)
                0x000adb24                PROVIDE (__sbss_start, ABSOLUTE (.))
                0x000adb24                PROVIDE (___sbss_start, ABSOLUTE (.))
 *(.dynsbss)
 *(.sbss .sbss.* .gnu.linkonce.sb.*)
 .sbss          0x000adb24       0x44 obj/default/src_0/cpu_0.o
                0x000adb24                Task2Sem
                0x000adb28                maxcol
                0x000adb2c                offsetY
                0x000adb30                offsetX
                0x000adb34                cropY
                0x000adb38                Task5Sem
                0x000adb3c                sizeX
                0x000adb40                detectX
                0x000adb44                Task6Sem
                0x000adb48                Task3Sem
                0x000adb4c                detectY
                0x000adb50                CoordinateX
                0x000adb54                cropX
                0x000adb58                sizeY
                0x000adb59                CoordinateY
                0x000adb60                Task4Sem
                0x000adb64                Task1Sem
 .sbss          0x000adb68        0xc /opt/altera/13.0sp1/nios2eds/bin/gnu/H-i686-pc-linux-gnu/bin/../lib/gcc/nios2-elf/4.1.2/../../../../nios2-elf/lib/mno-hw-mul/libc.a(lib_a-locale.o)
                0x000adb68                __nlocale_changed
                0x000adb6c                __mlocale_changed
                0x000adb70                _PathLocale
 .sbss          0x000adb74        0xc /opt/altera/13.0sp1/nios2eds/bin/gnu/H-i686-pc-linux-gnu/bin/../lib/gcc/nios2-elf/4.1.2/../../../../nios2-elf/lib/mno-hw-mul/libc.a(lib_a-mallocr.o)
                0x000adb74                __malloc_top_pad
                0x000adb78                __malloc_max_sbrked_mem
                0x000adb7c                __malloc_max_total_mem
 .sbss          0x000adb80        0x4 /opt/altera/13.0sp1/nios2eds/bin/gnu/H-i686-pc-linux-gnu/bin/../lib/gcc/nios2-elf/4.1.2/../../../../nios2-elf/lib/mno-hw-mul/libc.a(lib_a-int_errno.o)
                0x000adb80                errno
 .sbss          0x000adb84        0x4 ../../bsp/single-rtos_bsp//libucosii_bsp.a(alt_dev.o)
                0x000adb84                alt_fd_list_lock
 .sbss          0x000adb88        0xc ../../bsp/single-rtos_bsp//libucosii_bsp.a(alt_main.o)
                0x000adb88                alt_argc
                0x000adb8c                alt_argv
                0x000adb90                alt_envp
 .sbss          0x000adb94        0x8 ../../bsp/single-rtos_bsp//libucosii_bsp.a(alt_env_lock.o)
                0x000adb98                alt_envsem
 .sbss          0x000adb9c        0x8 ../../bsp/single-rtos_bsp//libucosii_bsp.a(alt_malloc_lock.o)
                0x000adba0                alt_heapsem
 .sbss          0x000adba4       0x68 ../../bsp/single-rtos_bsp//libucosii_bsp.a(os_core.o)
                0x000adba4                OSTmrFreeList
                0x000adba8                OSLockNesting
                0x000adbac                OSTmrSemSignal
                0x000adbb0                OSRunning
                0x000adbb4                OSIdleCtr
                0x000adbb8                OSTmrUsed
                0x000adbba                OSPrioHighRdy
                0x000adbbb                OSPrioCur
                0x000adbbc                OSTCBList
                0x000adbc0                OSTickStepState
                0x000adbc4                OSCtxSwCtr
                0x000adbc8                OSTmrFree
                0x000adbcc                OSIdleCtrMax
                0x000adbd0                OSTCBFreeList
                0x000adbd4                OSCPUUsage
                0x000adbd5                OSTaskCtr
                0x000adbd8                OSMemFreeList
                0x000adbdc                OSTCBHighRdy
                0x000adbe0                OSQFreeList
                0x000adbe4                OSRdyGrp
                0x000adbe5                OSRdyTbl
                0x000adbe8                OSEventFreeList
                0x000adbec                OSIntNesting
                0x000adbf0                OSTCBCur
                0x000adbf4                OSTmrTime
                0x000adbf8                OSTime
                0x000adbfc                OSTmrSem
                0x000adc00                OSFlagFreeList
                0x000adc04                OSStatRdy
                0x000adc08                OSIdleCtrRun
 .sbss          0x000adc0c        0x4 ../../bsp/single-rtos_bsp//libucosii_bsp.a(alt_irq_vars.o)
                0x000adc0c                alt_irq_active
 .sbss          0x000adc10        0x8 ../../bsp/single-rtos_bsp//libucosii_bsp.a(alt_tick.o)
                0x000adc10                _alt_tick_rate
                0x000adc14                _alt_nticks
 .sbss          0x000adc18        0x2 ../../bsp/single-rtos_bsp//libucosii_bsp.a(os_cpu_c.o)
 *(.sbss2 .sbss2.* .gnu.linkonce.sb2.*)
 *(.scommon)
                0x000adc1a                PROVIDE (__sbss_end, ABSOLUTE (.))
                0x000adc1a                PROVIDE (___sbss_end, ABSOLUTE (.))
 *(.dynbss)
 *(.bss .bss.* .gnu.linkonce.b.*)
 .bss           0x000adc1a        0x0 ../../bsp/single-rtos_bsp//obj/HAL/src/crt0.o
 .bss           0x000adc1a        0x0 obj/default/src_0/cpu_0.o
 .bss           0x000adc1a        0x0 /opt/altera/13.0sp1/nios2eds/bin/gnu/H-i686-pc-linux-gnu/bin/../lib/gcc/nios2-elf/4.1.2/mno-hw-mul/libgcc.a(_div_df.o)
 .bss           0x000adc1a        0x0 /opt/altera/13.0sp1/nios2eds/bin/gnu/H-i686-pc-linux-gnu/bin/../lib/gcc/nios2-elf/4.1.2/mno-hw-mul/libgcc.a(_thenan_df.o)
 .bss           0x000adc1a        0x0 /opt/altera/13.0sp1/nios2eds/bin/gnu/H-i686-pc-linux-gnu/bin/../lib/gcc/nios2-elf/4.1.2/mno-hw-mul/libgcc.a(_usi_to_df.o)
 .bss           0x000adc1a        0x0 /opt/altera/13.0sp1/nios2eds/bin/gnu/H-i686-pc-linux-gnu/bin/../lib/gcc/nios2-elf/4.1.2/mno-hw-mul/libgcc.a(lib2-divmod.o)
 .bss           0x000adc1a        0x0 /opt/altera/13.0sp1/nios2eds/bin/gnu/H-i686-pc-linux-gnu/bin/../lib/gcc/nios2-elf/4.1.2/mno-hw-mul/libgcc.a(lib2-mul.o)
 .bss           0x000adc1a        0x0 /opt/altera/13.0sp1/nios2eds/bin/gnu/H-i686-pc-linux-gnu/bin/../lib/gcc/nios2-elf/4.1.2/mno-hw-mul/libgcc.a(_clzsi2.o)
 .bss           0x000adc1a        0x0 /opt/altera/13.0sp1/nios2eds/bin/gnu/H-i686-pc-linux-gnu/bin/../lib/gcc/nios2-elf/4.1.2/mno-hw-mul/libgcc.a(_pack_df.o)
 .bss           0x000adc1a        0x0 /opt/altera/13.0sp1/nios2eds/bin/gnu/H-i686-pc-linux-gnu/bin/../lib/gcc/nios2-elf/4.1.2/mno-hw-mul/libgcc.a(_unpack_df.o)
 .bss           0x000adc1a        0x0 /opt/altera/13.0sp1/nios2eds/bin/gnu/H-i686-pc-linux-gnu/bin/../lib/gcc/nios2-elf/4.1.2/mno-hw-mul/libgcc.a(_clz.o)
 .bss           0x000adc1a        0x0 /opt/altera/13.0sp1/nios2eds/bin/gnu/H-i686-pc-linux-gnu/bin/../lib/gcc/nios2-elf/4.1.2/../../../../nios2-elf/lib/mno-hw-mul/libc.a(lib_a-printf.o)
 .bss           0x000adc1a        0x0 /opt/altera/13.0sp1/nios2eds/bin/gnu/H-i686-pc-linux-gnu/bin/../lib/gcc/nios2-elf/4.1.2/../../../../nios2-elf/lib/mno-hw-mul/libc.a(lib_a-putchar.o)
 .bss           0x000adc1a        0x0 /opt/altera/13.0sp1/nios2eds/bin/gnu/H-i686-pc-linux-gnu/bin/../lib/gcc/nios2-elf/4.1.2/../../../../nios2-elf/lib/mno-hw-mul/libc.a(lib_a-puts.o)
 .bss           0x000adc1a        0x0 /opt/altera/13.0sp1/nios2eds/bin/gnu/H-i686-pc-linux-gnu/bin/../lib/gcc/nios2-elf/4.1.2/../../../../nios2-elf/lib/mno-hw-mul/libc.a(lib_a-strlen.o)
 .bss           0x000adc1a        0x0 /opt/altera/13.0sp1/nios2eds/bin/gnu/H-i686-pc-linux-gnu/bin/../lib/gcc/nios2-elf/4.1.2/../../../../nios2-elf/lib/mno-hw-mul/libc.a(lib_a-vfprintf.o)
 .bss           0x000adc1a        0x0 /opt/altera/13.0sp1/nios2eds/bin/gnu/H-i686-pc-linux-gnu/bin/../lib/gcc/nios2-elf/4.1.2/../../../../nios2-elf/lib/mno-hw-mul/libc.a(lib_a-wsetup.o)
 .bss           0x000adc1a        0x0 /opt/altera/13.0sp1/nios2eds/bin/gnu/H-i686-pc-linux-gnu/bin/../lib/gcc/nios2-elf/4.1.2/../../../../nios2-elf/lib/mno-hw-mul/libc.a(lib_a-dtoa.o)
 .bss           0x000adc1a        0x0 /opt/altera/13.0sp1/nios2eds/bin/gnu/H-i686-pc-linux-gnu/bin/../lib/gcc/nios2-elf/4.1.2/../../../../nios2-elf/lib/mno-hw-mul/libc.a(lib_a-fflush.o)
 .bss           0x000adc1a        0x0 /opt/altera/13.0sp1/nios2eds/bin/gnu/H-i686-pc-linux-gnu/bin/../lib/gcc/nios2-elf/4.1.2/../../../../nios2-elf/lib/mno-hw-mul/libc.a(lib_a-findfp.o)
 .bss           0x000adc1a        0x0 /opt/altera/13.0sp1/nios2eds/bin/gnu/H-i686-pc-linux-gnu/bin/../lib/gcc/nios2-elf/4.1.2/../../../../nios2-elf/lib/mno-hw-mul/libc.a(lib_a-freer.o)
 .bss           0x000adc1a        0x0 /opt/altera/13.0sp1/nios2eds/bin/gnu/H-i686-pc-linux-gnu/bin/../lib/gcc/nios2-elf/4.1.2/../../../../nios2-elf/lib/mno-hw-mul/libc.a(lib_a-fvwrite.o)
 .bss           0x000adc1a        0x0 /opt/altera/13.0sp1/nios2eds/bin/gnu/H-i686-pc-linux-gnu/bin/../lib/gcc/nios2-elf/4.1.2/../../../../nios2-elf/lib/mno-hw-mul/libc.a(lib_a-fwalk.o)
 .bss           0x000adc1a        0x0 /opt/altera/13.0sp1/nios2eds/bin/gnu/H-i686-pc-linux-gnu/bin/../lib/gcc/nios2-elf/4.1.2/../../../../nios2-elf/lib/mno-hw-mul/libc.a(lib_a-impure.o)
 .bss           0x000adc1a        0x0 /opt/altera/13.0sp1/nios2eds/bin/gnu/H-i686-pc-linux-gnu/bin/../lib/gcc/nios2-elf/4.1.2/../../../../nios2-elf/lib/mno-hw-mul/libc.a(lib_a-locale.o)
 .bss           0x000adc1a        0x0 /opt/altera/13.0sp1/nios2eds/bin/gnu/H-i686-pc-linux-gnu/bin/../lib/gcc/nios2-elf/4.1.2/../../../../nios2-elf/lib/mno-hw-mul/libc.a(lib_a-makebuf.o)
 *fill*         0x000adc1a        0x2 00
 .bss           0x000adc1c       0x28 /opt/altera/13.0sp1/nios2eds/bin/gnu/H-i686-pc-linux-gnu/bin/../lib/gcc/nios2-elf/4.1.2/../../../../nios2-elf/lib/mno-hw-mul/libc.a(lib_a-mallocr.o)
                0x000adc1c                __malloc_current_mallinfo
 .bss           0x000adc44        0x0 /opt/altera/13.0sp1/nios2eds/bin/gnu/H-i686-pc-linux-gnu/bin/../lib/gcc/nios2-elf/4.1.2/../../../../nios2-elf/lib/mno-hw-mul/libc.a(lib_a-memchr.o)
 .bss           0x000adc44        0x0 /opt/altera/13.0sp1/nios2eds/bin/gnu/H-i686-pc-linux-gnu/bin/../lib/gcc/nios2-elf/4.1.2/../../../../nios2-elf/lib/mno-hw-mul/libc.a(lib_a-memcpy.o)
 .bss           0x000adc44        0x0 /opt/altera/13.0sp1/nios2eds/bin/gnu/H-i686-pc-linux-gnu/bin/../lib/gcc/nios2-elf/4.1.2/../../../../nios2-elf/lib/mno-hw-mul/libc.a(lib_a-memmove.o)
 .bss           0x000adc44        0x0 /opt/altera/13.0sp1/nios2eds/bin/gnu/H-i686-pc-linux-gnu/bin/../lib/gcc/nios2-elf/4.1.2/../../../../nios2-elf/lib/mno-hw-mul/libc.a(lib_a-memset.o)
 .bss           0x000adc44        0x0 /opt/altera/13.0sp1/nios2eds/bin/gnu/H-i686-pc-linux-gnu/bin/../lib/gcc/nios2-elf/4.1.2/../../../../nios2-elf/lib/mno-hw-mul/libc.a(lib_a-mprec.o)
 .bss           0x000adc44        0x0 /opt/altera/13.0sp1/nios2eds/bin/gnu/H-i686-pc-linux-gnu/bin/../lib/gcc/nios2-elf/4.1.2/../../../../nios2-elf/lib/mno-hw-mul/libc.a(lib_a-putc.o)
 .bss           0x000adc44        0x0 /opt/altera/13.0sp1/nios2eds/bin/gnu/H-i686-pc-linux-gnu/bin/../lib/gcc/nios2-elf/4.1.2/../../../../nios2-elf/lib/mno-hw-mul/libc.a(lib_a-reallocr.o)
 .bss           0x000adc44        0x0 /opt/altera/13.0sp1/nios2eds/bin/gnu/H-i686-pc-linux-gnu/bin/../lib/gcc/nios2-elf/4.1.2/../../../../nios2-elf/lib/mno-hw-mul/libc.a(lib_a-s_isinfd.o)
 .bss           0x000adc44        0x0 /opt/altera/13.0sp1/nios2eds/bin/gnu/H-i686-pc-linux-gnu/bin/../lib/gcc/nios2-elf/4.1.2/../../../../nios2-elf/lib/mno-hw-mul/libc.a(lib_a-s_isnand.o)
 .bss           0x000adc44        0x0 /opt/altera/13.0sp1/nios2eds/bin/gnu/H-i686-pc-linux-gnu/bin/../lib/gcc/nios2-elf/4.1.2/../../../../nios2-elf/lib/mno-hw-mul/libc.a(lib_a-sbrkr.o)
 .bss           0x000adc44        0x0 /opt/altera/13.0sp1/nios2eds/bin/gnu/H-i686-pc-linux-gnu/bin/../lib/gcc/nios2-elf/4.1.2/../../../../nios2-elf/lib/mno-hw-mul/libc.a(lib_a-stdio.o)
 .bss           0x000adc44        0x0 /opt/altera/13.0sp1/nios2eds/bin/gnu/H-i686-pc-linux-gnu/bin/../lib/gcc/nios2-elf/4.1.2/../../../../nios2-elf/lib/mno-hw-mul/libc.a(lib_a-strcmp.o)
 .bss           0x000adc44        0x0 /opt/altera/13.0sp1/nios2eds/bin/gnu/H-i686-pc-linux-gnu/bin/../lib/gcc/nios2-elf/4.1.2/../../../../nios2-elf/lib/mno-hw-mul/libc.a(lib_a-wbuf.o)
 .bss           0x000adc44        0x0 /opt/altera/13.0sp1/nios2eds/bin/gnu/H-i686-pc-linux-gnu/bin/../lib/gcc/nios2-elf/4.1.2/../../../../nios2-elf/lib/mno-hw-mul/libc.a(lib_a-writer.o)
 .bss           0x000adc44        0x0 /opt/altera/13.0sp1/nios2eds/bin/gnu/H-i686-pc-linux-gnu/bin/../lib/gcc/nios2-elf/4.1.2/../../../../nios2-elf/lib/mno-hw-mul/libc.a(lib_a-callocr.o)
 .bss           0x000adc44        0x0 /opt/altera/13.0sp1/nios2eds/bin/gnu/H-i686-pc-linux-gnu/bin/../lib/gcc/nios2-elf/4.1.2/../../../../nios2-elf/lib/mno-hw-mul/libc.a(lib_a-closer.o)
 .bss           0x000adc44        0x0 /opt/altera/13.0sp1/nios2eds/bin/gnu/H-i686-pc-linux-gnu/bin/../lib/gcc/nios2-elf/4.1.2/../../../../nios2-elf/lib/mno-hw-mul/libc.a(lib_a-fclose.o)
 .bss           0x000adc44        0x0 /opt/altera/13.0sp1/nios2eds/bin/gnu/H-i686-pc-linux-gnu/bin/../lib/gcc/nios2-elf/4.1.2/../../../../nios2-elf/lib/mno-hw-mul/libc.a(lib_a-fstatr.o)
 .bss           0x000adc44        0x0 /opt/altera/13.0sp1/nios2eds/bin/gnu/H-i686-pc-linux-gnu/bin/../lib/gcc/nios2-elf/4.1.2/../../../../nios2-elf/lib/mno-hw-mul/libc.a(lib_a-int_errno.o)
 .bss           0x000adc44        0x0 /opt/altera/13.0sp1/nios2eds/bin/gnu/H-i686-pc-linux-gnu/bin/../lib/gcc/nios2-elf/4.1.2/../../../../nios2-elf/lib/mno-hw-mul/libc.a(lib_a-isattyr.o)
 .bss           0x000adc44        0x0 /opt/altera/13.0sp1/nios2eds/bin/gnu/H-i686-pc-linux-gnu/bin/../lib/gcc/nios2-elf/4.1.2/../../../../nios2-elf/lib/mno-hw-mul/libc.a(lib_a-lseekr.o)
 .bss           0x000adc44        0x0 /opt/altera/13.0sp1/nios2eds/bin/gnu/H-i686-pc-linux-gnu/bin/../lib/gcc/nios2-elf/4.1.2/../../../../nios2-elf/lib/mno-hw-mul/libc.a(lib_a-readr.o)
 .bss           0x000adc44        0x0 /opt/altera/13.0sp1/nios2eds/bin/gnu/H-i686-pc-linux-gnu/bin/../lib/gcc/nios2-elf/4.1.2/mno-hw-mul/libgcc.a(_udivdi3.o)
 .bss           0x000adc44        0x0 /opt/altera/13.0sp1/nios2eds/bin/gnu/H-i686-pc-linux-gnu/bin/../lib/gcc/nios2-elf/4.1.2/mno-hw-mul/libgcc.a(_umoddi3.o)
 .bss           0x000adc44        0x0 /opt/altera/13.0sp1/nios2eds/bin/gnu/H-i686-pc-linux-gnu/bin/../lib/gcc/nios2-elf/4.1.2/mno-hw-mul/libgcc.a(_addsub_df.o)
 .bss           0x000adc44        0x0 /opt/altera/13.0sp1/nios2eds/bin/gnu/H-i686-pc-linux-gnu/bin/../lib/gcc/nios2-elf/4.1.2/mno-hw-mul/libgcc.a(_mul_df.o)
 .bss           0x000adc44        0x0 /opt/altera/13.0sp1/nios2eds/bin/gnu/H-i686-pc-linux-gnu/bin/../lib/gcc/nios2-elf/4.1.2/mno-hw-mul/libgcc.a(_eq_df.o)
 .bss           0x000adc44        0x0 /opt/altera/13.0sp1/nios2eds/bin/gnu/H-i686-pc-linux-gnu/bin/../lib/gcc/nios2-elf/4.1.2/mno-hw-mul/libgcc.a(_ne_df.o)
 .bss           0x000adc44        0x0 /opt/altera/13.0sp1/nios2eds/bin/gnu/H-i686-pc-linux-gnu/bin/../lib/gcc/nios2-elf/4.1.2/mno-hw-mul/libgcc.a(_gt_df.o)
 .bss           0x000adc44        0x0 /opt/altera/13.0sp1/nios2eds/bin/gnu/H-i686-pc-linux-gnu/bin/../lib/gcc/nios2-elf/4.1.2/mno-hw-mul/libgcc.a(_ge_df.o)
 .bss           0x000adc44        0x0 /opt/altera/13.0sp1/nios2eds/bin/gnu/H-i686-pc-linux-gnu/bin/../lib/gcc/nios2-elf/4.1.2/mno-hw-mul/libgcc.a(_lt_df.o)
 .bss           0x000adc44        0x0 /opt/altera/13.0sp1/nios2eds/bin/gnu/H-i686-pc-linux-gnu/bin/../lib/gcc/nios2-elf/4.1.2/mno-hw-mul/libgcc.a(_si_to_df.o)
 .bss           0x000adc44        0x0 /opt/altera/13.0sp1/nios2eds/bin/gnu/H-i686-pc-linux-gnu/bin/../lib/gcc/nios2-elf/4.1.2/mno-hw-mul/libgcc.a(_df_to_si.o)
 .bss           0x000adc44        0x0 /opt/altera/13.0sp1/nios2eds/bin/gnu/H-i686-pc-linux-gnu/bin/../lib/gcc/nios2-elf/4.1.2/mno-hw-mul/libgcc.a(_muldi3.o)
 .bss           0x000adc44        0x0 /opt/altera/13.0sp1/nios2eds/bin/gnu/H-i686-pc-linux-gnu/bin/../lib/gcc/nios2-elf/4.1.2/mno-hw-mul/libgcc.a(_fpcmp_parts_df.o)
 .bss           0x000adc44        0x0 ../../bsp/single-rtos_bsp//libucosii_bsp.a(alt_close.o)
 .bss           0x000adc44        0x0 ../../bsp/single-rtos_bsp//libucosii_bsp.a(alt_dev.o)
 .bss           0x000adc44        0x0 ../../bsp/single-rtos_bsp//libucosii_bsp.a(alt_errno.o)
 .bss           0x000adc44        0x0 ../../bsp/single-rtos_bsp//libucosii_bsp.a(alt_fstat.o)
 .bss           0x000adc44        0x0 ../../bsp/single-rtos_bsp//libucosii_bsp.a(alt_isatty.o)
 .bss           0x000adc44        0x0 ../../bsp/single-rtos_bsp//libucosii_bsp.a(alt_load.o)
 .bss           0x000adc44        0x0 ../../bsp/single-rtos_bsp//libucosii_bsp.a(alt_lseek.o)
 .bss           0x000adc44        0x0 ../../bsp/single-rtos_bsp//libucosii_bsp.a(alt_main.o)
 .bss           0x000adc44        0x0 ../../bsp/single-rtos_bsp//libucosii_bsp.a(alt_read.o)
 .bss           0x000adc44        0x0 ../../bsp/single-rtos_bsp//libucosii_bsp.a(alt_release_fd.o)
 .bss           0x000adc44        0x0 ../../bsp/single-rtos_bsp//libucosii_bsp.a(alt_sbrk.o)
 .bss           0x000adc44        0x0 ../../bsp/single-rtos_bsp//libucosii_bsp.a(alt_write.o)
 .bss           0x000adc44        0x0 ../../bsp/single-rtos_bsp//libucosii_bsp.a(alt_env_lock.o)
 .bss           0x000adc44        0x0 ../../bsp/single-rtos_bsp//libucosii_bsp.a(alt_malloc_lock.o)
 .bss           0x000adc44        0x0 ../../bsp/single-rtos_bsp//libucosii_bsp.a(os_core.o)
 .bss           0x000adc44        0x0 ../../bsp/single-rtos_bsp//libucosii_bsp.a(os_dbg.o)
 .bss           0x000adc44        0x0 ../../bsp/single-rtos_bsp//libucosii_bsp.a(os_flag.o)
 .bss           0x000adc44        0x0 ../../bsp/single-rtos_bsp//libucosii_bsp.a(os_mem.o)
 .bss           0x000adc44        0x0 ../../bsp/single-rtos_bsp//libucosii_bsp.a(os_q.o)
 .bss           0x000adc44        0x0 ../../bsp/single-rtos_bsp//libucosii_bsp.a(os_sem.o)
 .bss           0x000adc44        0x0 ../../bsp/single-rtos_bsp//libucosii_bsp.a(os_task.o)
 .bss           0x000adc44        0x0 ../../bsp/single-rtos_bsp//libucosii_bsp.a(os_time.o)
 .bss           0x000adc44        0x0 ../../bsp/single-rtos_bsp//libucosii_bsp.a(os_tmr.o)
 .bss           0x000adc44        0x0 ../../bsp/single-rtos_bsp//libucosii_bsp.a(alt_sys_init.o)
 .bss           0x000adc44        0x0 ../../bsp/single-rtos_bsp//libucosii_bsp.a(altera_avalon_jtag_uart_fd.o)
 .bss           0x000adc44        0x0 ../../bsp/single-rtos_bsp//libucosii_bsp.a(altera_avalon_jtag_uart_init.o)
 .bss           0x000adc44        0x0 ../../bsp/single-rtos_bsp//libucosii_bsp.a(altera_avalon_jtag_uart_ioctl.o)
 .bss           0x000adc44        0x0 ../../bsp/single-rtos_bsp//libucosii_bsp.a(altera_avalon_jtag_uart_read.o)
 .bss           0x000adc44        0x0 ../../bsp/single-rtos_bsp//libucosii_bsp.a(altera_avalon_jtag_uart_write.o)
 .bss           0x000adc44        0x0 ../../bsp/single-rtos_bsp//libucosii_bsp.a(altera_avalon_mutex.o)
 .bss           0x000adc44        0x0 ../../bsp/single-rtos_bsp//libucosii_bsp.a(altera_avalon_timer_sc.o)
 .bss           0x000adc44        0x0 ../../bsp/single-rtos_bsp//libucosii_bsp.a(alt_alarm_start.o)
 .bss           0x000adc44        0x0 ../../bsp/single-rtos_bsp//libucosii_bsp.a(alt_dcache_flush_all.o)
 .bss           0x000adc44        0x0 ../../bsp/single-rtos_bsp//libucosii_bsp.a(alt_dev_llist_insert.o)
 .bss           0x000adc44        0x0 ../../bsp/single-rtos_bsp//libucosii_bsp.a(alt_do_ctors.o)
 .bss           0x000adc44        0x0 ../../bsp/single-rtos_bsp//libucosii_bsp.a(alt_do_dtors.o)
 .bss           0x000adc44        0x0 ../../bsp/single-rtos_bsp//libucosii_bsp.a(alt_find_dev.o)
 .bss           0x000adc44        0x0 ../../bsp/single-rtos_bsp//libucosii_bsp.a(alt_icache_flush_all.o)
 .bss           0x000adc44        0x0 ../../bsp/single-rtos_bsp//libucosii_bsp.a(alt_io_redirect.o)
 .bss           0x000adc44        0x0 ../../bsp/single-rtos_bsp//libucosii_bsp.a(alt_irq_register.o)
 .bss           0x000adc44        0x0 ../../bsp/single-rtos_bsp//libucosii_bsp.a(alt_irq_vars.o)
 .bss           0x000adc44        0x0 ../../bsp/single-rtos_bsp//libucosii_bsp.a(alt_open.o)
 .bss           0x000adc44        0x0 ../../bsp/single-rtos_bsp//libucosii_bsp.a(alt_tick.o)
 .bss           0x000adc44        0x0 ../../bsp/single-rtos_bsp//libucosii_bsp.a(altera_nios2_qsys_irq.o)
 .bss           0x000adc44        0x0 ../../bsp/single-rtos_bsp//libucosii_bsp.a(os_cpu_a.o)
 .bss           0x000adc44        0x0 ../../bsp/single-rtos_bsp//libucosii_bsp.a(os_cpu_c.o)
 .bss           0x000adc44        0x0 ../../bsp/single-rtos_bsp//libucosii_bsp.a(alt_find_file.o)
 .bss           0x000adc44        0x0 ../../bsp/single-rtos_bsp//libucosii_bsp.a(alt_get_fd.o)
 .bss           0x000adc44        0x0 ../../bsp/single-rtos_bsp//libucosii_bsp.a(alt_irq_entry.o)
 .bss           0x000adc44        0x0 ../../bsp/single-rtos_bsp//libucosii_bsp.a(alt_irq_handler.o)
 .bss           0x000adc44        0x0 ../../bsp/single-rtos_bsp//libucosii_bsp.a(alt_exception_entry.o)
 .bss           0x000adc44        0x0 /opt/altera/13.0sp1/nios2eds/bin/gnu/H-i686-pc-linux-gnu/bin/../lib/gcc/nios2-elf/4.1.2/../../../../nios2-elf/lib/mno-hw-mul/libc.a(lib_a-atexit.o)
 .bss           0x000adc44        0x0 /opt/altera/13.0sp1/nios2eds/bin/gnu/H-i686-pc-linux-gnu/bin/../lib/gcc/nios2-elf/4.1.2/../../../../nios2-elf/lib/mno-hw-mul/libc.a(lib_a-exit.o)
 .bss           0x000adc44        0x0 /opt/altera/13.0sp1/nios2eds/bin/gnu/H-i686-pc-linux-gnu/bin/../lib/gcc/nios2-elf/4.1.2/../../../../nios2-elf/lib/mno-hw-mul/libc.a(lib_a-memcmp.o)
 .bss           0x000adc44        0x0 /opt/altera/13.0sp1/nios2eds/bin/gnu/H-i686-pc-linux-gnu/bin/../lib/gcc/nios2-elf/4.1.2/../../../../nios2-elf/lib/mno-hw-mul/libc.a(lib_a-__atexit.o)
 .bss           0x000adc44        0x0 /opt/altera/13.0sp1/nios2eds/bin/gnu/H-i686-pc-linux-gnu/bin/../lib/gcc/nios2-elf/4.1.2/../../../../nios2-elf/lib/mno-hw-mul/libc.a(lib_a-__call_atexit.o)
 .bss           0x000adc44        0x0 /opt/altera/13.0sp1/nios2eds/bin/gnu/H-i686-pc-linux-gnu/bin/../lib/gcc/nios2-elf/4.1.2/mno-hw-mul/libgcc.a(_fixunsdfsi.o)
 .bss           0x000adc44        0x0 ../../bsp/single-rtos_bsp//libucosii_bsp.a(alt_exit.o)
 *(COMMON)
 COMMON         0x000adc44    0x13440 obj/default/src_0/cpu_0.o
                0x000adc44                task1_stk
                0x000afc44                task4_stk
                0x000b1c44                sumMatrix
                0x000b2c44                task7_stk
                0x000b4c44                task6_stk
                0x000b6c44                task2_stk
                0x000b8c44                task3_stk
                0x000bac44                StartTask_Stack
                0x000bcc44                grayed_matrix
                0x000bdc44                cropMatrix
                0x000bf084                task5_stk
 COMMON         0x000c1084     0x3d74 ../../bsp/single-rtos_bsp//libucosii_bsp.a(os_core.o)
                0x000c1084                OSTmrWheelTbl
                0x000c1094                OSFlagTbl
                0x000c1404                OSTmrTbl
                0x000c1744                OSMemTbl
                0x000c2374                OSTaskStatStk
                0x000c2b74                OSQTbl
                0x000c2d54                OSTmrTaskStk
                0x000c3554                OSTaskIdleStk
                0x000c3d54                OSEventTbl
                0x000c4894                OSTCBTbl
                0x000c4da4                OSTCBPrioTbl
 COMMON         0x000c4df8      0x100 ../../bsp/single-rtos_bsp//libucosii_bsp.a(alt_irq_handler.o)
                0x000c4df8                alt_irq
 COMMON         0x000c4ef8      0x190 /opt/altera/13.0sp1/nios2eds/bin/gnu/H-i686-pc-linux-gnu/bin/../lib/gcc/nios2-elf/4.1.2/../../../../nios2-elf/lib/mno-hw-mul/libc.a(lib_a-atexit.o)
                0x000c4ef8                _atexit0
                0x000c5088                . = ALIGN (0x4)
                0x000c5088                __bss_end = ABSOLUTE (.)

.sram           0x000c5088        0x0
                0x000c5088                PROVIDE (_alt_partition_sram_start, ABSOLUTE (.))
 *(.sram. sram.*)
                0x000c5088                . = ALIGN (0x4)
                0x000c5088                PROVIDE (_alt_partition_sram_end, ABSOLUTE (.))
                0x000c5088                _end = ABSOLUTE (.)
                0x000c5088                end = ABSOLUTE (.)
                0x000c5088                __alt_stack_base = ABSOLUTE (.)
                0x000c5088                PROVIDE (_alt_partition_sram_load_addr, LOADADDR (.sram))

.shared_onchip  0x00102000        0x0 load address 0x000c5088
                0x00102000                PROVIDE (_alt_partition_shared_onchip_start, ABSOLUTE (.))
 *(.shared_onchip. shared_onchip.*)
                0x00102000                . = ALIGN (0x4)
                0x00102000                PROVIDE (_alt_partition_shared_onchip_end, ABSOLUTE (.))
                0x000c5088                PROVIDE (_alt_partition_shared_onchip_load_addr, LOADADDR (.shared_onchip))

.sdram          0x01000000        0x0 load address 0x000c5088
                0x01000000                PROVIDE (_alt_partition_sdram_start, ABSOLUTE (.))
 *(.sdram. sdram.*)
                0x01000000                . = ALIGN (0x4)
                0x01000000                PROVIDE (_alt_partition_sdram_end, ABSOLUTE (.))
                0x000c5088                PROVIDE (_alt_partition_sdram_load_addr, LOADADDR (.sdram))

.stab
 *(.stab)

.stabstr
 *(.stabstr)

.stab.excl
 *(.stab.excl)

.stab.exclstr
 *(.stab.exclstr)

.stab.index
 *(.stab.index)

.stab.indexstr
 *(.stab.indexstr)

.comment        0x00000000       0x26
 *(.comment)
 .comment       0x00000000       0x26 obj/default/src_0/cpu_0.o
                                 0x27 (size before relaxing)
 .comment       0x00000000       0x27 /opt/altera/13.0sp1/nios2eds/bin/gnu/H-i686-pc-linux-gnu/bin/../lib/gcc/nios2-elf/4.1.2/mno-hw-mul/libgcc.a(_div_df.o)
 .comment       0x00000000       0x27 /opt/altera/13.0sp1/nios2eds/bin/gnu/H-i686-pc-linux-gnu/bin/../lib/gcc/nios2-elf/4.1.2/mno-hw-mul/libgcc.a(_thenan_df.o)
 .comment       0x00000000       0x27 /opt/altera/13.0sp1/nios2eds/bin/gnu/H-i686-pc-linux-gnu/bin/../lib/gcc/nios2-elf/4.1.2/mno-hw-mul/libgcc.a(_usi_to_df.o)
 .comment       0x00000000       0x27 /opt/altera/13.0sp1/nios2eds/bin/gnu/H-i686-pc-linux-gnu/bin/../lib/gcc/nios2-elf/4.1.2/mno-hw-mul/libgcc.a(lib2-divmod.o)
 .comment       0x00000000       0x27 /opt/altera/13.0sp1/nios2eds/bin/gnu/H-i686-pc-linux-gnu/bin/../lib/gcc/nios2-elf/4.1.2/mno-hw-mul/libgcc.a(lib2-mul.o)
 .comment       0x00000000       0x27 /opt/altera/13.0sp1/nios2eds/bin/gnu/H-i686-pc-linux-gnu/bin/../lib/gcc/nios2-elf/4.1.2/mno-hw-mul/libgcc.a(_clzsi2.o)
 .comment       0x00000000       0x27 /opt/altera/13.0sp1/nios2eds/bin/gnu/H-i686-pc-linux-gnu/bin/../lib/gcc/nios2-elf/4.1.2/mno-hw-mul/libgcc.a(_pack_df.o)
 .comment       0x00000000       0x27 /opt/altera/13.0sp1/nios2eds/bin/gnu/H-i686-pc-linux-gnu/bin/../lib/gcc/nios2-elf/4.1.2/mno-hw-mul/libgcc.a(_unpack_df.o)
 .comment       0x00000000       0x27 /opt/altera/13.0sp1/nios2eds/bin/gnu/H-i686-pc-linux-gnu/bin/../lib/gcc/nios2-elf/4.1.2/mno-hw-mul/libgcc.a(_clz.o)
 .comment       0x00000000       0x27 /opt/altera/13.0sp1/nios2eds/bin/gnu/H-i686-pc-linux-gnu/bin/../lib/gcc/nios2-elf/4.1.2/../../../../nios2-elf/lib/mno-hw-mul/libc.a(lib_a-printf.o)
 .comment       0x00000000       0x27 /opt/altera/13.0sp1/nios2eds/bin/gnu/H-i686-pc-linux-gnu/bin/../lib/gcc/nios2-elf/4.1.2/../../../../nios2-elf/lib/mno-hw-mul/libc.a(lib_a-putchar.o)
 .comment       0x00000000       0x27 /opt/altera/13.0sp1/nios2eds/bin/gnu/H-i686-pc-linux-gnu/bin/../lib/gcc/nios2-elf/4.1.2/../../../../nios2-elf/lib/mno-hw-mul/libc.a(lib_a-puts.o)
 .comment       0x00000000       0x27 /opt/altera/13.0sp1/nios2eds/bin/gnu/H-i686-pc-linux-gnu/bin/../lib/gcc/nios2-elf/4.1.2/../../../../nios2-elf/lib/mno-hw-mul/libc.a(lib_a-strlen.o)
 .comment       0x00000000       0x27 /opt/altera/13.0sp1/nios2eds/bin/gnu/H-i686-pc-linux-gnu/bin/../lib/gcc/nios2-elf/4.1.2/../../../../nios2-elf/lib/mno-hw-mul/libc.a(lib_a-vfprintf.o)
 .comment       0x00000000       0x27 /opt/altera/13.0sp1/nios2eds/bin/gnu/H-i686-pc-linux-gnu/bin/../lib/gcc/nios2-elf/4.1.2/../../../../nios2-elf/lib/mno-hw-mul/libc.a(lib_a-wsetup.o)
 .comment       0x00000000       0x27 /opt/altera/13.0sp1/nios2eds/bin/gnu/H-i686-pc-linux-gnu/bin/../lib/gcc/nios2-elf/4.1.2/../../../../nios2-elf/lib/mno-hw-mul/libc.a(lib_a-dtoa.o)
 .comment       0x00000000       0x27 /opt/altera/13.0sp1/nios2eds/bin/gnu/H-i686-pc-linux-gnu/bin/../lib/gcc/nios2-elf/4.1.2/../../../../nios2-elf/lib/mno-hw-mul/libc.a(lib_a-fflush.o)
 .comment       0x00000000       0x27 /opt/altera/13.0sp1/nios2eds/bin/gnu/H-i686-pc-linux-gnu/bin/../lib/gcc/nios2-elf/4.1.2/../../../../nios2-elf/lib/mno-hw-mul/libc.a(lib_a-findfp.o)
 .comment       0x00000000       0x27 /opt/altera/13.0sp1/nios2eds/bin/gnu/H-i686-pc-linux-gnu/bin/../lib/gcc/nios2-elf/4.1.2/../../../../nios2-elf/lib/mno-hw-mul/libc.a(lib_a-freer.o)
 .comment       0x00000000       0x27 /opt/altera/13.0sp1/nios2eds/bin/gnu/H-i686-pc-linux-gnu/bin/../lib/gcc/nios2-elf/4.1.2/../../../../nios2-elf/lib/mno-hw-mul/libc.a(lib_a-fvwrite.o)
 .comment       0x00000000       0x27 /opt/altera/13.0sp1/nios2eds/bin/gnu/H-i686-pc-linux-gnu/bin/../lib/gcc/nios2-elf/4.1.2/../../../../nios2-elf/lib/mno-hw-mul/libc.a(lib_a-fwalk.o)
 .comment       0x00000000       0x27 /opt/altera/13.0sp1/nios2eds/bin/gnu/H-i686-pc-linux-gnu/bin/../lib/gcc/nios2-elf/4.1.2/../../../../nios2-elf/lib/mno-hw-mul/libc.a(lib_a-impure.o)
 .comment       0x00000000       0x27 /opt/altera/13.0sp1/nios2eds/bin/gnu/H-i686-pc-linux-gnu/bin/../lib/gcc/nios2-elf/4.1.2/../../../../nios2-elf/lib/mno-hw-mul/libc.a(lib_a-locale.o)
 .comment       0x00000000       0x27 /opt/altera/13.0sp1/nios2eds/bin/gnu/H-i686-pc-linux-gnu/bin/../lib/gcc/nios2-elf/4.1.2/../../../../nios2-elf/lib/mno-hw-mul/libc.a(lib_a-makebuf.o)
 .comment       0x00000000       0x27 /opt/altera/13.0sp1/nios2eds/bin/gnu/H-i686-pc-linux-gnu/bin/../lib/gcc/nios2-elf/4.1.2/../../../../nios2-elf/lib/mno-hw-mul/libc.a(lib_a-mallocr.o)
 .comment       0x00000000       0x27 /opt/altera/13.0sp1/nios2eds/bin/gnu/H-i686-pc-linux-gnu/bin/../lib/gcc/nios2-elf/4.1.2/../../../../nios2-elf/lib/mno-hw-mul/libc.a(lib_a-memchr.o)
 .comment       0x00000000       0x27 /opt/altera/13.0sp1/nios2eds/bin/gnu/H-i686-pc-linux-gnu/bin/../lib/gcc/nios2-elf/4.1.2/../../../../nios2-elf/lib/mno-hw-mul/libc.a(lib_a-memcpy.o)
 .comment       0x00000000       0x27 /opt/altera/13.0sp1/nios2eds/bin/gnu/H-i686-pc-linux-gnu/bin/../lib/gcc/nios2-elf/4.1.2/../../../../nios2-elf/lib/mno-hw-mul/libc.a(lib_a-memmove.o)
 .comment       0x00000000       0x27 /opt/altera/13.0sp1/nios2eds/bin/gnu/H-i686-pc-linux-gnu/bin/../lib/gcc/nios2-elf/4.1.2/../../../../nios2-elf/lib/mno-hw-mul/libc.a(lib_a-memset.o)
 .comment       0x00000000       0x27 /opt/altera/13.0sp1/nios2eds/bin/gnu/H-i686-pc-linux-gnu/bin/../lib/gcc/nios2-elf/4.1.2/../../../../nios2-elf/lib/mno-hw-mul/libc.a(lib_a-mprec.o)
 .comment       0x00000000       0x27 /opt/altera/13.0sp1/nios2eds/bin/gnu/H-i686-pc-linux-gnu/bin/../lib/gcc/nios2-elf/4.1.2/../../../../nios2-elf/lib/mno-hw-mul/libc.a(lib_a-putc.o)
 .comment       0x00000000       0x27 /opt/altera/13.0sp1/nios2eds/bin/gnu/H-i686-pc-linux-gnu/bin/../lib/gcc/nios2-elf/4.1.2/../../../../nios2-elf/lib/mno-hw-mul/libc.a(lib_a-reallocr.o)
 .comment       0x00000000       0x27 /opt/altera/13.0sp1/nios2eds/bin/gnu/H-i686-pc-linux-gnu/bin/../lib/gcc/nios2-elf/4.1.2/../../../../nios2-elf/lib/mno-hw-mul/libc.a(lib_a-s_isinfd.o)
 .comment       0x00000000       0x27 /opt/altera/13.0sp1/nios2eds/bin/gnu/H-i686-pc-linux-gnu/bin/../lib/gcc/nios2-elf/4.1.2/../../../../nios2-elf/lib/mno-hw-mul/libc.a(lib_a-s_isnand.o)
 .comment       0x00000000       0x27 /opt/altera/13.0sp1/nios2eds/bin/gnu/H-i686-pc-linux-gnu/bin/../lib/gcc/nios2-elf/4.1.2/../../../../nios2-elf/lib/mno-hw-mul/libc.a(lib_a-sbrkr.o)
 .comment       0x00000000       0x27 /opt/altera/13.0sp1/nios2eds/bin/gnu/H-i686-pc-linux-gnu/bin/../lib/gcc/nios2-elf/4.1.2/../../../../nios2-elf/lib/mno-hw-mul/libc.a(lib_a-stdio.o)
 .comment       0x00000000       0x27 /opt/altera/13.0sp1/nios2eds/bin/gnu/H-i686-pc-linux-gnu/bin/../lib/gcc/nios2-elf/4.1.2/../../../../nios2-elf/lib/mno-hw-mul/libc.a(lib_a-strcmp.o)
 .comment       0x00000000       0x27 /opt/altera/13.0sp1/nios2eds/bin/gnu/H-i686-pc-linux-gnu/bin/../lib/gcc/nios2-elf/4.1.2/../../../../nios2-elf/lib/mno-hw-mul/libc.a(lib_a-wbuf.o)
 .comment       0x00000000       0x27 /opt/altera/13.0sp1/nios2eds/bin/gnu/H-i686-pc-linux-gnu/bin/../lib/gcc/nios2-elf/4.1.2/../../../../nios2-elf/lib/mno-hw-mul/libc.a(lib_a-writer.o)
 .comment       0x00000000       0x27 /opt/altera/13.0sp1/nios2eds/bin/gnu/H-i686-pc-linux-gnu/bin/../lib/gcc/nios2-elf/4.1.2/../../../../nios2-elf/lib/mno-hw-mul/libc.a(lib_a-callocr.o)
 .comment       0x00000000       0x27 /opt/altera/13.0sp1/nios2eds/bin/gnu/H-i686-pc-linux-gnu/bin/../lib/gcc/nios2-elf/4.1.2/../../../../nios2-elf/lib/mno-hw-mul/libc.a(lib_a-closer.o)
 .comment       0x00000000       0x27 /opt/altera/13.0sp1/nios2eds/bin/gnu/H-i686-pc-linux-gnu/bin/../lib/gcc/nios2-elf/4.1.2/../../../../nios2-elf/lib/mno-hw-mul/libc.a(lib_a-fclose.o)
 .comment       0x00000000       0x27 /opt/altera/13.0sp1/nios2eds/bin/gnu/H-i686-pc-linux-gnu/bin/../lib/gcc/nios2-elf/4.1.2/../../../../nios2-elf/lib/mno-hw-mul/libc.a(lib_a-fstatr.o)
 .comment       0x00000000       0x27 /opt/altera/13.0sp1/nios2eds/bin/gnu/H-i686-pc-linux-gnu/bin/../lib/gcc/nios2-elf/4.1.2/../../../../nios2-elf/lib/mno-hw-mul/libc.a(lib_a-int_errno.o)
 .comment       0x00000000       0x27 /opt/altera/13.0sp1/nios2eds/bin/gnu/H-i686-pc-linux-gnu/bin/../lib/gcc/nios2-elf/4.1.2/../../../../nios2-elf/lib/mno-hw-mul/libc.a(lib_a-isattyr.o)
 .comment       0x00000000       0x27 /opt/altera/13.0sp1/nios2eds/bin/gnu/H-i686-pc-linux-gnu/bin/../lib/gcc/nios2-elf/4.1.2/../../../../nios2-elf/lib/mno-hw-mul/libc.a(lib_a-lseekr.o)
 .comment       0x00000000       0x27 /opt/altera/13.0sp1/nios2eds/bin/gnu/H-i686-pc-linux-gnu/bin/../lib/gcc/nios2-elf/4.1.2/../../../../nios2-elf/lib/mno-hw-mul/libc.a(lib_a-readr.o)
 .comment       0x00000000       0x27 /opt/altera/13.0sp1/nios2eds/bin/gnu/H-i686-pc-linux-gnu/bin/../lib/gcc/nios2-elf/4.1.2/mno-hw-mul/libgcc.a(_udivdi3.o)
 .comment       0x00000000       0x27 /opt/altera/13.0sp1/nios2eds/bin/gnu/H-i686-pc-linux-gnu/bin/../lib/gcc/nios2-elf/4.1.2/mno-hw-mul/libgcc.a(_umoddi3.o)
 .comment       0x00000000       0x27 /opt/altera/13.0sp1/nios2eds/bin/gnu/H-i686-pc-linux-gnu/bin/../lib/gcc/nios2-elf/4.1.2/mno-hw-mul/libgcc.a(_addsub_df.o)
 .comment       0x00000000       0x27 /opt/altera/13.0sp1/nios2eds/bin/gnu/H-i686-pc-linux-gnu/bin/../lib/gcc/nios2-elf/4.1.2/mno-hw-mul/libgcc.a(_mul_df.o)
 .comment       0x00000000       0x27 /opt/altera/13.0sp1/nios2eds/bin/gnu/H-i686-pc-linux-gnu/bin/../lib/gcc/nios2-elf/4.1.2/mno-hw-mul/libgcc.a(_eq_df.o)
 .comment       0x00000000       0x27 /opt/altera/13.0sp1/nios2eds/bin/gnu/H-i686-pc-linux-gnu/bin/../lib/gcc/nios2-elf/4.1.2/mno-hw-mul/libgcc.a(_ne_df.o)
 .comment       0x00000000       0x27 /opt/altera/13.0sp1/nios2eds/bin/gnu/H-i686-pc-linux-gnu/bin/../lib/gcc/nios2-elf/4.1.2/mno-hw-mul/libgcc.a(_gt_df.o)
 .comment       0x00000000       0x27 /opt/altera/13.0sp1/nios2eds/bin/gnu/H-i686-pc-linux-gnu/bin/../lib/gcc/nios2-elf/4.1.2/mno-hw-mul/libgcc.a(_ge_df.o)
 .comment       0x00000000       0x27 /opt/altera/13.0sp1/nios2eds/bin/gnu/H-i686-pc-linux-gnu/bin/../lib/gcc/nios2-elf/4.1.2/mno-hw-mul/libgcc.a(_lt_df.o)
 .comment       0x00000000       0x27 /opt/altera/13.0sp1/nios2eds/bin/gnu/H-i686-pc-linux-gnu/bin/../lib/gcc/nios2-elf/4.1.2/mno-hw-mul/libgcc.a(_si_to_df.o)
 .comment       0x00000000       0x27 /opt/altera/13.0sp1/nios2eds/bin/gnu/H-i686-pc-linux-gnu/bin/../lib/gcc/nios2-elf/4.1.2/mno-hw-mul/libgcc.a(_df_to_si.o)
 .comment       0x00000000       0x27 /opt/altera/13.0sp1/nios2eds/bin/gnu/H-i686-pc-linux-gnu/bin/../lib/gcc/nios2-elf/4.1.2/mno-hw-mul/libgcc.a(_muldi3.o)
 .comment       0x00000000       0x27 /opt/altera/13.0sp1/nios2eds/bin/gnu/H-i686-pc-linux-gnu/bin/../lib/gcc/nios2-elf/4.1.2/mno-hw-mul/libgcc.a(_fpcmp_parts_df.o)
 .comment       0x00000000       0x27 ../../bsp/single-rtos_bsp//libucosii_bsp.a(alt_close.o)
 .comment       0x00000000       0x27 ../../bsp/single-rtos_bsp//libucosii_bsp.a(alt_dev.o)
 .comment       0x00000000       0x27 ../../bsp/single-rtos_bsp//libucosii_bsp.a(alt_errno.o)
 .comment       0x00000000       0x27 ../../bsp/single-rtos_bsp//libucosii_bsp.a(alt_fstat.o)
 .comment       0x00000000       0x27 ../../bsp/single-rtos_bsp//libucosii_bsp.a(alt_isatty.o)
 .comment       0x00000000       0x27 ../../bsp/single-rtos_bsp//libucosii_bsp.a(alt_load.o)
 .comment       0x00000000       0x27 ../../bsp/single-rtos_bsp//libucosii_bsp.a(alt_lseek.o)
 .comment       0x00000000       0x27 ../../bsp/single-rtos_bsp//libucosii_bsp.a(alt_main.o)
 .comment       0x00000000       0x27 ../../bsp/single-rtos_bsp//libucosii_bsp.a(alt_read.o)
 .comment       0x00000000       0x27 ../../bsp/single-rtos_bsp//libucosii_bsp.a(alt_release_fd.o)
 .comment       0x00000000       0x27 ../../bsp/single-rtos_bsp//libucosii_bsp.a(alt_sbrk.o)
 .comment       0x00000000       0x27 ../../bsp/single-rtos_bsp//libucosii_bsp.a(alt_write.o)
 .comment       0x00000000       0x27 ../../bsp/single-rtos_bsp//libucosii_bsp.a(alt_env_lock.o)
 .comment       0x00000000       0x27 ../../bsp/single-rtos_bsp//libucosii_bsp.a(alt_malloc_lock.o)
 .comment       0x00000000       0x27 ../../bsp/single-rtos_bsp//libucosii_bsp.a(os_core.o)
 .comment       0x00000000       0x27 ../../bsp/single-rtos_bsp//libucosii_bsp.a(os_dbg.o)
 .comment       0x00000000       0x27 ../../bsp/single-rtos_bsp//libucosii_bsp.a(os_flag.o)
 .comment       0x00000000       0x27 ../../bsp/single-rtos_bsp//libucosii_bsp.a(os_mem.o)
 .comment       0x00000000       0x27 ../../bsp/single-rtos_bsp//libucosii_bsp.a(os_q.o)
 .comment       0x00000000       0x27 ../../bsp/single-rtos_bsp//libucosii_bsp.a(os_sem.o)
 .comment       0x00000000       0x27 ../../bsp/single-rtos_bsp//libucosii_bsp.a(os_task.o)
 .comment       0x00000000       0x27 ../../bsp/single-rtos_bsp//libucosii_bsp.a(os_time.o)
 .comment       0x00000000       0x27 ../../bsp/single-rtos_bsp//libucosii_bsp.a(os_tmr.o)
 .comment       0x00000000       0x27 ../../bsp/single-rtos_bsp//libucosii_bsp.a(alt_sys_init.o)
 .comment       0x00000000       0x27 ../../bsp/single-rtos_bsp//libucosii_bsp.a(altera_avalon_jtag_uart_fd.o)
 .comment       0x00000000       0x27 ../../bsp/single-rtos_bsp//libucosii_bsp.a(altera_avalon_jtag_uart_init.o)
 .comment       0x00000000       0x27 ../../bsp/single-rtos_bsp//libucosii_bsp.a(altera_avalon_jtag_uart_ioctl.o)
 .comment       0x00000000       0x27 ../../bsp/single-rtos_bsp//libucosii_bsp.a(altera_avalon_jtag_uart_read.o)
 .comment       0x00000000       0x27 ../../bsp/single-rtos_bsp//libucosii_bsp.a(altera_avalon_jtag_uart_write.o)
 .comment       0x00000000       0x27 ../../bsp/single-rtos_bsp//libucosii_bsp.a(altera_avalon_mutex.o)
 .comment       0x00000000       0x27 ../../bsp/single-rtos_bsp//libucosii_bsp.a(altera_avalon_timer_sc.o)
 .comment       0x00000000       0x27 ../../bsp/single-rtos_bsp//libucosii_bsp.a(alt_alarm_start.o)
 .comment       0x00000000       0x27 ../../bsp/single-rtos_bsp//libucosii_bsp.a(alt_dcache_flush_all.o)
 .comment       0x00000000       0x27 ../../bsp/single-rtos_bsp//libucosii_bsp.a(alt_dev_llist_insert.o)
 .comment       0x00000000       0x27 ../../bsp/single-rtos_bsp//libucosii_bsp.a(alt_do_ctors.o)
 .comment       0x00000000       0x27 ../../bsp/single-rtos_bsp//libucosii_bsp.a(alt_do_dtors.o)
 .comment       0x00000000       0x27 ../../bsp/single-rtos_bsp//libucosii_bsp.a(alt_find_dev.o)
 .comment       0x00000000       0x27 ../../bsp/single-rtos_bsp//libucosii_bsp.a(alt_icache_flush_all.o)
 .comment       0x00000000       0x27 ../../bsp/single-rtos_bsp//libucosii_bsp.a(alt_io_redirect.o)
 .comment       0x00000000       0x27 ../../bsp/single-rtos_bsp//libucosii_bsp.a(alt_irq_register.o)
 .comment       0x00000000       0x27 ../../bsp/single-rtos_bsp//libucosii_bsp.a(alt_irq_vars.o)
 .comment       0x00000000       0x27 ../../bsp/single-rtos_bsp//libucosii_bsp.a(alt_open.o)
 .comment       0x00000000       0x27 ../../bsp/single-rtos_bsp//libucosii_bsp.a(alt_tick.o)
 .comment       0x00000000       0x27 ../../bsp/single-rtos_bsp//libucosii_bsp.a(altera_nios2_qsys_irq.o)
 .comment       0x00000000       0x27 ../../bsp/single-rtos_bsp//libucosii_bsp.a(os_cpu_c.o)
 .comment       0x00000000       0x27 ../../bsp/single-rtos_bsp//libucosii_bsp.a(alt_find_file.o)
 .comment       0x00000000       0x27 ../../bsp/single-rtos_bsp//libucosii_bsp.a(alt_get_fd.o)
 .comment       0x00000000       0x27 ../../bsp/single-rtos_bsp//libucosii_bsp.a(alt_irq_handler.o)
 .comment       0x00000000       0x27 /opt/altera/13.0sp1/nios2eds/bin/gnu/H-i686-pc-linux-gnu/bin/../lib/gcc/nios2-elf/4.1.2/../../../../nios2-elf/lib/mno-hw-mul/libc.a(lib_a-atexit.o)
 .comment       0x00000000       0x27 /opt/altera/13.0sp1/nios2eds/bin/gnu/H-i686-pc-linux-gnu/bin/../lib/gcc/nios2-elf/4.1.2/../../../../nios2-elf/lib/mno-hw-mul/libc.a(lib_a-exit.o)
 .comment       0x00000000       0x27 /opt/altera/13.0sp1/nios2eds/bin/gnu/H-i686-pc-linux-gnu/bin/../lib/gcc/nios2-elf/4.1.2/../../../../nios2-elf/lib/mno-hw-mul/libc.a(lib_a-memcmp.o)
 .comment       0x00000000       0x27 /opt/altera/13.0sp1/nios2eds/bin/gnu/H-i686-pc-linux-gnu/bin/../lib/gcc/nios2-elf/4.1.2/../../../../nios2-elf/lib/mno-hw-mul/libc.a(lib_a-__atexit.o)
 .comment       0x00000000       0x27 /opt/altera/13.0sp1/nios2eds/bin/gnu/H-i686-pc-linux-gnu/bin/../lib/gcc/nios2-elf/4.1.2/../../../../nios2-elf/lib/mno-hw-mul/libc.a(lib_a-__call_atexit.o)
 .comment       0x00000000       0x27 /opt/altera/13.0sp1/nios2eds/bin/gnu/H-i686-pc-linux-gnu/bin/../lib/gcc/nios2-elf/4.1.2/mno-hw-mul/libgcc.a(_fixunsdfsi.o)
 .comment       0x00000000       0x27 ../../bsp/single-rtos_bsp//libucosii_bsp.a(alt_exit.o)

.debug
 *(.debug)

.line
 *(.line)

.debug_srcinfo
 *(.debug_srcinfo)

.debug_sfnames
 *(.debug_sfnames)

.debug_aranges  0x00000000      0xe78
 *(.debug_aranges)
 .debug_aranges
                0x00000000       0x28 ../../bsp/single-rtos_bsp//obj/HAL/src/crt0.o
 .debug_aranges
                0x00000028       0x20 obj/default/src_0/cpu_0.o
 .debug_aranges
                0x00000048       0x20 /opt/altera/13.0sp1/nios2eds/bin/gnu/H-i686-pc-linux-gnu/bin/../lib/gcc/nios2-elf/4.1.2/mno-hw-mul/libgcc.a(_div_df.o)
 .debug_aranges
                0x00000068       0x20 /opt/altera/13.0sp1/nios2eds/bin/gnu/H-i686-pc-linux-gnu/bin/../lib/gcc/nios2-elf/4.1.2/mno-hw-mul/libgcc.a(_usi_to_df.o)
 .debug_aranges
                0x00000088       0x20 /opt/altera/13.0sp1/nios2eds/bin/gnu/H-i686-pc-linux-gnu/bin/../lib/gcc/nios2-elf/4.1.2/mno-hw-mul/libgcc.a(lib2-divmod.o)
 .debug_aranges
                0x000000a8       0x20 /opt/altera/13.0sp1/nios2eds/bin/gnu/H-i686-pc-linux-gnu/bin/../lib/gcc/nios2-elf/4.1.2/mno-hw-mul/libgcc.a(lib2-mul.o)
 .debug_aranges
                0x000000c8       0x20 /opt/altera/13.0sp1/nios2eds/bin/gnu/H-i686-pc-linux-gnu/bin/../lib/gcc/nios2-elf/4.1.2/mno-hw-mul/libgcc.a(_clzsi2.o)
 .debug_aranges
                0x000000e8       0x20 /opt/altera/13.0sp1/nios2eds/bin/gnu/H-i686-pc-linux-gnu/bin/../lib/gcc/nios2-elf/4.1.2/mno-hw-mul/libgcc.a(_pack_df.o)
 .debug_aranges
                0x00000108       0x20 /opt/altera/13.0sp1/nios2eds/bin/gnu/H-i686-pc-linux-gnu/bin/../lib/gcc/nios2-elf/4.1.2/mno-hw-mul/libgcc.a(_unpack_df.o)
 .debug_aranges
                0x00000128       0x20 /opt/altera/13.0sp1/nios2eds/bin/gnu/H-i686-pc-linux-gnu/bin/../lib/gcc/nios2-elf/4.1.2/../../../../nios2-elf/lib/mno-hw-mul/libc.a(lib_a-printf.o)
 .debug_aranges
                0x00000148       0x20 /opt/altera/13.0sp1/nios2eds/bin/gnu/H-i686-pc-linux-gnu/bin/../lib/gcc/nios2-elf/4.1.2/../../../../nios2-elf/lib/mno-hw-mul/libc.a(lib_a-putchar.o)
 .debug_aranges
                0x00000168       0x20 /opt/altera/13.0sp1/nios2eds/bin/gnu/H-i686-pc-linux-gnu/bin/../lib/gcc/nios2-elf/4.1.2/../../../../nios2-elf/lib/mno-hw-mul/libc.a(lib_a-puts.o)
 .debug_aranges
                0x00000188       0x20 /opt/altera/13.0sp1/nios2eds/bin/gnu/H-i686-pc-linux-gnu/bin/../lib/gcc/nios2-elf/4.1.2/../../../../nios2-elf/lib/mno-hw-mul/libc.a(lib_a-strlen.o)
 .debug_aranges
                0x000001a8       0x20 /opt/altera/13.0sp1/nios2eds/bin/gnu/H-i686-pc-linux-gnu/bin/../lib/gcc/nios2-elf/4.1.2/../../../../nios2-elf/lib/mno-hw-mul/libc.a(lib_a-vfprintf.o)
 .debug_aranges
                0x000001c8       0x20 /opt/altera/13.0sp1/nios2eds/bin/gnu/H-i686-pc-linux-gnu/bin/../lib/gcc/nios2-elf/4.1.2/../../../../nios2-elf/lib/mno-hw-mul/libc.a(lib_a-wsetup.o)
 .debug_aranges
                0x000001e8       0x20 /opt/altera/13.0sp1/nios2eds/bin/gnu/H-i686-pc-linux-gnu/bin/../lib/gcc/nios2-elf/4.1.2/../../../../nios2-elf/lib/mno-hw-mul/libc.a(lib_a-dtoa.o)
 .debug_aranges
                0x00000208       0x20 /opt/altera/13.0sp1/nios2eds/bin/gnu/H-i686-pc-linux-gnu/bin/../lib/gcc/nios2-elf/4.1.2/../../../../nios2-elf/lib/mno-hw-mul/libc.a(lib_a-fflush.o)
 .debug_aranges
                0x00000228       0x20 /opt/altera/13.0sp1/nios2eds/bin/gnu/H-i686-pc-linux-gnu/bin/../lib/gcc/nios2-elf/4.1.2/../../../../nios2-elf/lib/mno-hw-mul/libc.a(lib_a-findfp.o)
 .debug_aranges
                0x00000248       0x20 /opt/altera/13.0sp1/nios2eds/bin/gnu/H-i686-pc-linux-gnu/bin/../lib/gcc/nios2-elf/4.1.2/../../../../nios2-elf/lib/mno-hw-mul/libc.a(lib_a-freer.o)
 .debug_aranges
                0x00000268       0x20 /opt/altera/13.0sp1/nios2eds/bin/gnu/H-i686-pc-linux-gnu/bin/../lib/gcc/nios2-elf/4.1.2/../../../../nios2-elf/lib/mno-hw-mul/libc.a(lib_a-fvwrite.o)
 .debug_aranges
                0x00000288       0x20 /opt/altera/13.0sp1/nios2eds/bin/gnu/H-i686-pc-linux-gnu/bin/../lib/gcc/nios2-elf/4.1.2/../../../../nios2-elf/lib/mno-hw-mul/libc.a(lib_a-fwalk.o)
 .debug_aranges
                0x000002a8       0x20 /opt/altera/13.0sp1/nios2eds/bin/gnu/H-i686-pc-linux-gnu/bin/../lib/gcc/nios2-elf/4.1.2/../../../../nios2-elf/lib/mno-hw-mul/libc.a(lib_a-locale.o)
 .debug_aranges
                0x000002c8       0x20 /opt/altera/13.0sp1/nios2eds/bin/gnu/H-i686-pc-linux-gnu/bin/../lib/gcc/nios2-elf/4.1.2/../../../../nios2-elf/lib/mno-hw-mul/libc.a(lib_a-makebuf.o)
 .debug_aranges
                0x000002e8       0x20 /opt/altera/13.0sp1/nios2eds/bin/gnu/H-i686-pc-linux-gnu/bin/../lib/gcc/nios2-elf/4.1.2/../../../../nios2-elf/lib/mno-hw-mul/libc.a(lib_a-mallocr.o)
 .debug_aranges
                0x00000308       0x20 /opt/altera/13.0sp1/nios2eds/bin/gnu/H-i686-pc-linux-gnu/bin/../lib/gcc/nios2-elf/4.1.2/../../../../nios2-elf/lib/mno-hw-mul/libc.a(lib_a-memchr.o)
 .debug_aranges
                0x00000328       0x20 /opt/altera/13.0sp1/nios2eds/bin/gnu/H-i686-pc-linux-gnu/bin/../lib/gcc/nios2-elf/4.1.2/../../../../nios2-elf/lib/mno-hw-mul/libc.a(lib_a-memcpy.o)
 .debug_aranges
                0x00000348       0x20 /opt/altera/13.0sp1/nios2eds/bin/gnu/H-i686-pc-linux-gnu/bin/../lib/gcc/nios2-elf/4.1.2/../../../../nios2-elf/lib/mno-hw-mul/libc.a(lib_a-memmove.o)
 .debug_aranges
                0x00000368       0x20 /opt/altera/13.0sp1/nios2eds/bin/gnu/H-i686-pc-linux-gnu/bin/../lib/gcc/nios2-elf/4.1.2/../../../../nios2-elf/lib/mno-hw-mul/libc.a(lib_a-memset.o)
 .debug_aranges
                0x00000388       0x20 /opt/altera/13.0sp1/nios2eds/bin/gnu/H-i686-pc-linux-gnu/bin/../lib/gcc/nios2-elf/4.1.2/../../../../nios2-elf/lib/mno-hw-mul/libc.a(lib_a-mprec.o)
 .debug_aranges
                0x000003a8       0x20 /opt/altera/13.0sp1/nios2eds/bin/gnu/H-i686-pc-linux-gnu/bin/../lib/gcc/nios2-elf/4.1.2/../../../../nios2-elf/lib/mno-hw-mul/libc.a(lib_a-putc.o)
 .debug_aranges
                0x000003c8       0x20 /opt/altera/13.0sp1/nios2eds/bin/gnu/H-i686-pc-linux-gnu/bin/../lib/gcc/nios2-elf/4.1.2/../../../../nios2-elf/lib/mno-hw-mul/libc.a(lib_a-reallocr.o)
 .debug_aranges
                0x000003e8       0x20 /opt/altera/13.0sp1/nios2eds/bin/gnu/H-i686-pc-linux-gnu/bin/../lib/gcc/nios2-elf/4.1.2/../../../../nios2-elf/lib/mno-hw-mul/libc.a(lib_a-s_isinfd.o)
 .debug_aranges
                0x00000408       0x20 /opt/altera/13.0sp1/nios2eds/bin/gnu/H-i686-pc-linux-gnu/bin/../lib/gcc/nios2-elf/4.1.2/../../../../nios2-elf/lib/mno-hw-mul/libc.a(lib_a-s_isnand.o)
 .debug_aranges
                0x00000428       0x20 /opt/altera/13.0sp1/nios2eds/bin/gnu/H-i686-pc-linux-gnu/bin/../lib/gcc/nios2-elf/4.1.2/../../../../nios2-elf/lib/mno-hw-mul/libc.a(lib_a-sbrkr.o)
 .debug_aranges
                0x00000448       0x20 /opt/altera/13.0sp1/nios2eds/bin/gnu/H-i686-pc-linux-gnu/bin/../lib/gcc/nios2-elf/4.1.2/../../../../nios2-elf/lib/mno-hw-mul/libc.a(lib_a-stdio.o)
 .debug_aranges
                0x00000468       0x20 /opt/altera/13.0sp1/nios2eds/bin/gnu/H-i686-pc-linux-gnu/bin/../lib/gcc/nios2-elf/4.1.2/../../../../nios2-elf/lib/mno-hw-mul/libc.a(lib_a-strcmp.o)
 .debug_aranges
                0x00000488       0x20 /opt/altera/13.0sp1/nios2eds/bin/gnu/H-i686-pc-linux-gnu/bin/../lib/gcc/nios2-elf/4.1.2/../../../../nios2-elf/lib/mno-hw-mul/libc.a(lib_a-wbuf.o)
 .debug_aranges
                0x000004a8       0x20 /opt/altera/13.0sp1/nios2eds/bin/gnu/H-i686-pc-linux-gnu/bin/../lib/gcc/nios2-elf/4.1.2/../../../../nios2-elf/lib/mno-hw-mul/libc.a(lib_a-writer.o)
 .debug_aranges
                0x000004c8       0x20 /opt/altera/13.0sp1/nios2eds/bin/gnu/H-i686-pc-linux-gnu/bin/../lib/gcc/nios2-elf/4.1.2/../../../../nios2-elf/lib/mno-hw-mul/libc.a(lib_a-callocr.o)
 .debug_aranges
                0x000004e8       0x20 /opt/altera/13.0sp1/nios2eds/bin/gnu/H-i686-pc-linux-gnu/bin/../lib/gcc/nios2-elf/4.1.2/../../../../nios2-elf/lib/mno-hw-mul/libc.a(lib_a-closer.o)
 .debug_aranges
                0x00000508       0x20 /opt/altera/13.0sp1/nios2eds/bin/gnu/H-i686-pc-linux-gnu/bin/../lib/gcc/nios2-elf/4.1.2/../../../../nios2-elf/lib/mno-hw-mul/libc.a(lib_a-fclose.o)
 .debug_aranges
                0x00000528       0x20 /opt/altera/13.0sp1/nios2eds/bin/gnu/H-i686-pc-linux-gnu/bin/../lib/gcc/nios2-elf/4.1.2/../../../../nios2-elf/lib/mno-hw-mul/libc.a(lib_a-fstatr.o)
 .debug_aranges
                0x00000548       0x20 /opt/altera/13.0sp1/nios2eds/bin/gnu/H-i686-pc-linux-gnu/bin/../lib/gcc/nios2-elf/4.1.2/../../../../nios2-elf/lib/mno-hw-mul/libc.a(lib_a-isattyr.o)
 .debug_aranges
                0x00000568       0x20 /opt/altera/13.0sp1/nios2eds/bin/gnu/H-i686-pc-linux-gnu/bin/../lib/gcc/nios2-elf/4.1.2/../../../../nios2-elf/lib/mno-hw-mul/libc.a(lib_a-lseekr.o)
 .debug_aranges
                0x00000588       0x20 /opt/altera/13.0sp1/nios2eds/bin/gnu/H-i686-pc-linux-gnu/bin/../lib/gcc/nios2-elf/4.1.2/../../../../nios2-elf/lib/mno-hw-mul/libc.a(lib_a-readr.o)
 .debug_aranges
                0x000005a8       0x20 /opt/altera/13.0sp1/nios2eds/bin/gnu/H-i686-pc-linux-gnu/bin/../lib/gcc/nios2-elf/4.1.2/mno-hw-mul/libgcc.a(_udivdi3.o)
 .debug_aranges
                0x000005c8       0x20 /opt/altera/13.0sp1/nios2eds/bin/gnu/H-i686-pc-linux-gnu/bin/../lib/gcc/nios2-elf/4.1.2/mno-hw-mul/libgcc.a(_umoddi3.o)
 .debug_aranges
                0x000005e8       0x20 /opt/altera/13.0sp1/nios2eds/bin/gnu/H-i686-pc-linux-gnu/bin/../lib/gcc/nios2-elf/4.1.2/mno-hw-mul/libgcc.a(_addsub_df.o)
 .debug_aranges
                0x00000608       0x20 /opt/altera/13.0sp1/nios2eds/bin/gnu/H-i686-pc-linux-gnu/bin/../lib/gcc/nios2-elf/4.1.2/mno-hw-mul/libgcc.a(_mul_df.o)
 .debug_aranges
                0x00000628       0x20 /opt/altera/13.0sp1/nios2eds/bin/gnu/H-i686-pc-linux-gnu/bin/../lib/gcc/nios2-elf/4.1.2/mno-hw-mul/libgcc.a(_eq_df.o)
 .debug_aranges
                0x00000648       0x20 /opt/altera/13.0sp1/nios2eds/bin/gnu/H-i686-pc-linux-gnu/bin/../lib/gcc/nios2-elf/4.1.2/mno-hw-mul/libgcc.a(_ne_df.o)
 .debug_aranges
                0x00000668       0x20 /opt/altera/13.0sp1/nios2eds/bin/gnu/H-i686-pc-linux-gnu/bin/../lib/gcc/nios2-elf/4.1.2/mno-hw-mul/libgcc.a(_gt_df.o)
 .debug_aranges
                0x00000688       0x20 /opt/altera/13.0sp1/nios2eds/bin/gnu/H-i686-pc-linux-gnu/bin/../lib/gcc/nios2-elf/4.1.2/mno-hw-mul/libgcc.a(_ge_df.o)
 .debug_aranges
                0x000006a8       0x20 /opt/altera/13.0sp1/nios2eds/bin/gnu/H-i686-pc-linux-gnu/bin/../lib/gcc/nios2-elf/4.1.2/mno-hw-mul/libgcc.a(_lt_df.o)
 .debug_aranges
                0x000006c8       0x20 /opt/altera/13.0sp1/nios2eds/bin/gnu/H-i686-pc-linux-gnu/bin/../lib/gcc/nios2-elf/4.1.2/mno-hw-mul/libgcc.a(_si_to_df.o)
 .debug_aranges
                0x000006e8       0x20 /opt/altera/13.0sp1/nios2eds/bin/gnu/H-i686-pc-linux-gnu/bin/../lib/gcc/nios2-elf/4.1.2/mno-hw-mul/libgcc.a(_df_to_si.o)
 .debug_aranges
                0x00000708       0x20 /opt/altera/13.0sp1/nios2eds/bin/gnu/H-i686-pc-linux-gnu/bin/../lib/gcc/nios2-elf/4.1.2/mno-hw-mul/libgcc.a(_muldi3.o)
 .debug_aranges
                0x00000728       0x20 /opt/altera/13.0sp1/nios2eds/bin/gnu/H-i686-pc-linux-gnu/bin/../lib/gcc/nios2-elf/4.1.2/mno-hw-mul/libgcc.a(_fpcmp_parts_df.o)
 .debug_aranges
                0x00000748       0x20 ../../bsp/single-rtos_bsp//libucosii_bsp.a(alt_close.o)
 .debug_aranges
                0x00000768       0x20 ../../bsp/single-rtos_bsp//libucosii_bsp.a(alt_dev.o)
 .debug_aranges
                0x00000788       0x20 ../../bsp/single-rtos_bsp//libucosii_bsp.a(alt_fstat.o)
 .debug_aranges
                0x000007a8       0x20 ../../bsp/single-rtos_bsp//libucosii_bsp.a(alt_isatty.o)
 .debug_aranges
                0x000007c8       0x20 ../../bsp/single-rtos_bsp//libucosii_bsp.a(alt_load.o)
 .debug_aranges
                0x000007e8       0x20 ../../bsp/single-rtos_bsp//libucosii_bsp.a(alt_lseek.o)
 .debug_aranges
                0x00000808       0x20 ../../bsp/single-rtos_bsp//libucosii_bsp.a(alt_main.o)
 .debug_aranges
                0x00000828       0x20 ../../bsp/single-rtos_bsp//libucosii_bsp.a(alt_read.o)
 .debug_aranges
                0x00000848       0x20 ../../bsp/single-rtos_bsp//libucosii_bsp.a(alt_release_fd.o)
 .debug_aranges
                0x00000868       0x20 ../../bsp/single-rtos_bsp//libucosii_bsp.a(alt_sbrk.o)
 .debug_aranges
                0x00000888       0x20 ../../bsp/single-rtos_bsp//libucosii_bsp.a(alt_write.o)
 .debug_aranges
                0x000008a8       0x20 ../../bsp/single-rtos_bsp//libucosii_bsp.a(alt_env_lock.o)
 .debug_aranges
                0x000008c8       0x20 ../../bsp/single-rtos_bsp//libucosii_bsp.a(alt_malloc_lock.o)
 .debug_aranges
                0x000008e8       0x20 ../../bsp/single-rtos_bsp//libucosii_bsp.a(os_core.o)
 .debug_aranges
                0x00000908       0x20 ../../bsp/single-rtos_bsp//libucosii_bsp.a(os_dbg.o)
 .debug_aranges
                0x00000928       0x20 ../../bsp/single-rtos_bsp//libucosii_bsp.a(os_flag.o)
 .debug_aranges
                0x00000948       0x20 ../../bsp/single-rtos_bsp//libucosii_bsp.a(os_mem.o)
 .debug_aranges
                0x00000968       0x20 ../../bsp/single-rtos_bsp//libucosii_bsp.a(os_q.o)
 .debug_aranges
                0x00000988       0x20 ../../bsp/single-rtos_bsp//libucosii_bsp.a(os_sem.o)
 .debug_aranges
                0x000009a8       0x20 ../../bsp/single-rtos_bsp//libucosii_bsp.a(os_task.o)
 .debug_aranges
                0x000009c8       0x20 ../../bsp/single-rtos_bsp//libucosii_bsp.a(os_time.o)
 .debug_aranges
                0x000009e8       0x20 ../../bsp/single-rtos_bsp//libucosii_bsp.a(os_tmr.o)
 .debug_aranges
                0x00000a08       0x20 ../../bsp/single-rtos_bsp//libucosii_bsp.a(alt_sys_init.o)
 .debug_aranges
                0x00000a28       0x20 ../../bsp/single-rtos_bsp//libucosii_bsp.a(altera_avalon_jtag_uart_fd.o)
 .debug_aranges
                0x00000a48       0x20 ../../bsp/single-rtos_bsp//libucosii_bsp.a(altera_avalon_jtag_uart_init.o)
 .debug_aranges
                0x00000a68       0x20 ../../bsp/single-rtos_bsp//libucosii_bsp.a(altera_avalon_jtag_uart_ioctl.o)
 .debug_aranges
                0x00000a88       0x20 ../../bsp/single-rtos_bsp//libucosii_bsp.a(altera_avalon_jtag_uart_read.o)
 .debug_aranges
                0x00000aa8       0x20 ../../bsp/single-rtos_bsp//libucosii_bsp.a(altera_avalon_jtag_uart_write.o)
 .debug_aranges
                0x00000ac8       0x20 ../../bsp/single-rtos_bsp//libucosii_bsp.a(altera_avalon_mutex.o)
 .debug_aranges
                0x00000ae8       0x20 ../../bsp/single-rtos_bsp//libucosii_bsp.a(altera_avalon_timer_sc.o)
 .debug_aranges
                0x00000b08       0x20 ../../bsp/single-rtos_bsp//libucosii_bsp.a(alt_alarm_start.o)
 .debug_aranges
                0x00000b28       0x20 ../../bsp/single-rtos_bsp//libucosii_bsp.a(alt_dcache_flush_all.o)
 .debug_aranges
                0x00000b48       0x20 ../../bsp/single-rtos_bsp//libucosii_bsp.a(alt_dev_llist_insert.o)
 .debug_aranges
                0x00000b68       0x20 ../../bsp/single-rtos_bsp//libucosii_bsp.a(alt_do_ctors.o)
 .debug_aranges
                0x00000b88       0x20 ../../bsp/single-rtos_bsp//libucosii_bsp.a(alt_do_dtors.o)
 .debug_aranges
                0x00000ba8       0x20 ../../bsp/single-rtos_bsp//libucosii_bsp.a(alt_find_dev.o)
 .debug_aranges
                0x00000bc8       0x20 ../../bsp/single-rtos_bsp//libucosii_bsp.a(alt_icache_flush_all.o)
 .debug_aranges
                0x00000be8       0x20 ../../bsp/single-rtos_bsp//libucosii_bsp.a(alt_io_redirect.o)
 .debug_aranges
                0x00000c08       0x20 ../../bsp/single-rtos_bsp//libucosii_bsp.a(alt_irq_register.o)
 .debug_aranges
                0x00000c28       0x20 ../../bsp/single-rtos_bsp//libucosii_bsp.a(alt_open.o)
 .debug_aranges
                0x00000c48       0x20 ../../bsp/single-rtos_bsp//libucosii_bsp.a(alt_tick.o)
 .debug_aranges
                0x00000c68       0x20 ../../bsp/single-rtos_bsp//libucosii_bsp.a(altera_nios2_qsys_irq.o)
 .debug_aranges
                0x00000c88       0x20 ../../bsp/single-rtos_bsp//libucosii_bsp.a(os_cpu_a.o)
 .debug_aranges
                0x00000ca8       0x20 ../../bsp/single-rtos_bsp//libucosii_bsp.a(os_cpu_c.o)
 .debug_aranges
                0x00000cc8       0x20 ../../bsp/single-rtos_bsp//libucosii_bsp.a(alt_find_file.o)
 .debug_aranges
                0x00000ce8       0x20 ../../bsp/single-rtos_bsp//libucosii_bsp.a(alt_get_fd.o)
 .debug_aranges
                0x00000d08       0x30 ../../bsp/single-rtos_bsp//libucosii_bsp.a(alt_irq_entry.o)
 .debug_aranges
                0x00000d38       0x28 ../../bsp/single-rtos_bsp//libucosii_bsp.a(alt_irq_handler.o)
 .debug_aranges
                0x00000d60       0x38 ../../bsp/single-rtos_bsp//libucosii_bsp.a(alt_exception_entry.o)
 .debug_aranges
                0x00000d98       0x20 /opt/altera/13.0sp1/nios2eds/bin/gnu/H-i686-pc-linux-gnu/bin/../lib/gcc/nios2-elf/4.1.2/../../../../nios2-elf/lib/mno-hw-mul/libc.a(lib_a-atexit.o)
 .debug_aranges
                0x00000db8       0x20 /opt/altera/13.0sp1/nios2eds/bin/gnu/H-i686-pc-linux-gnu/bin/../lib/gcc/nios2-elf/4.1.2/../../../../nios2-elf/lib/mno-hw-mul/libc.a(lib_a-exit.o)
 .debug_aranges
                0x00000dd8       0x20 /opt/altera/13.0sp1/nios2eds/bin/gnu/H-i686-pc-linux-gnu/bin/../lib/gcc/nios2-elf/4.1.2/../../../../nios2-elf/lib/mno-hw-mul/libc.a(lib_a-memcmp.o)
 .debug_aranges
                0x00000df8       0x20 /opt/altera/13.0sp1/nios2eds/bin/gnu/H-i686-pc-linux-gnu/bin/../lib/gcc/nios2-elf/4.1.2/../../../../nios2-elf/lib/mno-hw-mul/libc.a(lib_a-__atexit.o)
 .debug_aranges
                0x00000e18       0x20 /opt/altera/13.0sp1/nios2eds/bin/gnu/H-i686-pc-linux-gnu/bin/../lib/gcc/nios2-elf/4.1.2/../../../../nios2-elf/lib/mno-hw-mul/libc.a(lib_a-__call_atexit.o)
 .debug_aranges
                0x00000e38       0x20 /opt/altera/13.0sp1/nios2eds/bin/gnu/H-i686-pc-linux-gnu/bin/../lib/gcc/nios2-elf/4.1.2/mno-hw-mul/libgcc.a(_fixunsdfsi.o)
 .debug_aranges
                0x00000e58       0x20 ../../bsp/single-rtos_bsp//libucosii_bsp.a(alt_exit.o)

.debug_pubnames
                0x00000000     0x2533
 *(.debug_pubnames)
 .debug_pubnames
                0x00000000      0x318 obj/default/src_0/cpu_0.o
 .debug_pubnames
                0x00000318       0x1f /opt/altera/13.0sp1/nios2eds/bin/gnu/H-i686-pc-linux-gnu/bin/../lib/gcc/nios2-elf/4.1.2/mno-hw-mul/libgcc.a(_div_df.o)
 .debug_pubnames
                0x00000337       0x22 /opt/altera/13.0sp1/nios2eds/bin/gnu/H-i686-pc-linux-gnu/bin/../lib/gcc/nios2-elf/4.1.2/mno-hw-mul/libgcc.a(_thenan_df.o)
 .debug_pubnames
                0x00000359       0x24 /opt/altera/13.0sp1/nios2eds/bin/gnu/H-i686-pc-linux-gnu/bin/../lib/gcc/nios2-elf/4.1.2/mno-hw-mul/libgcc.a(_usi_to_df.o)
 .debug_pubnames
                0x0000037d       0x48 /opt/altera/13.0sp1/nios2eds/bin/gnu/H-i686-pc-linux-gnu/bin/../lib/gcc/nios2-elf/4.1.2/mno-hw-mul/libgcc.a(lib2-divmod.o)
 .debug_pubnames
                0x000003c5       0x1f /opt/altera/13.0sp1/nios2eds/bin/gnu/H-i686-pc-linux-gnu/bin/../lib/gcc/nios2-elf/4.1.2/mno-hw-mul/libgcc.a(lib2-mul.o)
 .debug_pubnames
                0x000003e4       0x1f /opt/altera/13.0sp1/nios2eds/bin/gnu/H-i686-pc-linux-gnu/bin/../lib/gcc/nios2-elf/4.1.2/mno-hw-mul/libgcc.a(_clzsi2.o)
 .debug_pubnames
                0x00000403       0x1f /opt/altera/13.0sp1/nios2eds/bin/gnu/H-i686-pc-linux-gnu/bin/../lib/gcc/nios2-elf/4.1.2/mno-hw-mul/libgcc.a(_pack_df.o)
 .debug_pubnames
                0x00000422       0x21 /opt/altera/13.0sp1/nios2eds/bin/gnu/H-i686-pc-linux-gnu/bin/../lib/gcc/nios2-elf/4.1.2/mno-hw-mul/libgcc.a(_unpack_df.o)
 .debug_pubnames
                0x00000443       0x20 /opt/altera/13.0sp1/nios2eds/bin/gnu/H-i686-pc-linux-gnu/bin/../lib/gcc/nios2-elf/4.1.2/mno-hw-mul/libgcc.a(_clz.o)
 .debug_pubnames
                0x00000463       0x2b /opt/altera/13.0sp1/nios2eds/bin/gnu/H-i686-pc-linux-gnu/bin/../lib/gcc/nios2-elf/4.1.2/../../../../nios2-elf/lib/mno-hw-mul/libc.a(lib_a-printf.o)
 .debug_pubnames
                0x0000048e       0x2d /opt/altera/13.0sp1/nios2eds/bin/gnu/H-i686-pc-linux-gnu/bin/../lib/gcc/nios2-elf/4.1.2/../../../../nios2-elf/lib/mno-hw-mul/libc.a(lib_a-putchar.o)
 .debug_pubnames
                0x000004bb       0x27 /opt/altera/13.0sp1/nios2eds/bin/gnu/H-i686-pc-linux-gnu/bin/../lib/gcc/nios2-elf/4.1.2/../../../../nios2-elf/lib/mno-hw-mul/libc.a(lib_a-puts.o)
 .debug_pubnames
                0x000004e2       0x1d /opt/altera/13.0sp1/nios2eds/bin/gnu/H-i686-pc-linux-gnu/bin/../lib/gcc/nios2-elf/4.1.2/../../../../nios2-elf/lib/mno-hw-mul/libc.a(lib_a-strlen.o)
 .debug_pubnames
                0x000004ff       0x45 /opt/altera/13.0sp1/nios2eds/bin/gnu/H-i686-pc-linux-gnu/bin/../lib/gcc/nios2-elf/4.1.2/../../../../nios2-elf/lib/mno-hw-mul/libc.a(lib_a-vfprintf.o)
 .debug_pubnames
                0x00000544       0x22 /opt/altera/13.0sp1/nios2eds/bin/gnu/H-i686-pc-linux-gnu/bin/../lib/gcc/nios2-elf/4.1.2/../../../../nios2-elf/lib/mno-hw-mul/libc.a(lib_a-wsetup.o)
 .debug_pubnames
                0x00000566       0x1e /opt/altera/13.0sp1/nios2eds/bin/gnu/H-i686-pc-linux-gnu/bin/../lib/gcc/nios2-elf/4.1.2/../../../../nios2-elf/lib/mno-hw-mul/libc.a(lib_a-dtoa.o)
 .debug_pubnames
                0x00000584       0x2b /opt/altera/13.0sp1/nios2eds/bin/gnu/H-i686-pc-linux-gnu/bin/../lib/gcc/nios2-elf/4.1.2/../../../../nios2-elf/lib/mno-hw-mul/libc.a(lib_a-fflush.o)
 .debug_pubnames
                0x000005af       0xdb /opt/altera/13.0sp1/nios2eds/bin/gnu/H-i686-pc-linux-gnu/bin/../lib/gcc/nios2-elf/4.1.2/../../../../nios2-elf/lib/mno-hw-mul/libc.a(lib_a-findfp.o)
 .debug_pubnames
                0x0000068a       0x31 /opt/altera/13.0sp1/nios2eds/bin/gnu/H-i686-pc-linux-gnu/bin/../lib/gcc/nios2-elf/4.1.2/../../../../nios2-elf/lib/mno-hw-mul/libc.a(lib_a-freer.o)
 .debug_pubnames
                0x000006bb       0x23 /opt/altera/13.0sp1/nios2eds/bin/gnu/H-i686-pc-linux-gnu/bin/../lib/gcc/nios2-elf/4.1.2/../../../../nios2-elf/lib/mno-hw-mul/libc.a(lib_a-fvwrite.o)
 .debug_pubnames
                0x000006de       0x2e /opt/altera/13.0sp1/nios2eds/bin/gnu/H-i686-pc-linux-gnu/bin/../lib/gcc/nios2-elf/4.1.2/../../../../nios2-elf/lib/mno-hw-mul/libc.a(lib_a-fwalk.o)
 .debug_pubnames
                0x0000070c       0x39 /opt/altera/13.0sp1/nios2eds/bin/gnu/H-i686-pc-linux-gnu/bin/../lib/gcc/nios2-elf/4.1.2/../../../../nios2-elf/lib/mno-hw-mul/libc.a(lib_a-impure.o)
 .debug_pubnames
                0x00000745       0xc3 /opt/altera/13.0sp1/nios2eds/bin/gnu/H-i686-pc-linux-gnu/bin/../lib/gcc/nios2-elf/4.1.2/../../../../nios2-elf/lib/mno-hw-mul/libc.a(lib_a-locale.o)
 .debug_pubnames
                0x00000808       0x23 /opt/altera/13.0sp1/nios2eds/bin/gnu/H-i686-pc-linux-gnu/bin/../lib/gcc/nios2-elf/4.1.2/../../../../nios2-elf/lib/mno-hw-mul/libc.a(lib_a-makebuf.o)
 .debug_pubnames
                0x0000082b       0xce /opt/altera/13.0sp1/nios2eds/bin/gnu/H-i686-pc-linux-gnu/bin/../lib/gcc/nios2-elf/4.1.2/../../../../nios2-elf/lib/mno-hw-mul/libc.a(lib_a-mallocr.o)
 .debug_pubnames
                0x000008f9       0x1d /opt/altera/13.0sp1/nios2eds/bin/gnu/H-i686-pc-linux-gnu/bin/../lib/gcc/nios2-elf/4.1.2/../../../../nios2-elf/lib/mno-hw-mul/libc.a(lib_a-memchr.o)
 .debug_pubnames
                0x00000916       0x1d /opt/altera/13.0sp1/nios2eds/bin/gnu/H-i686-pc-linux-gnu/bin/../lib/gcc/nios2-elf/4.1.2/../../../../nios2-elf/lib/mno-hw-mul/libc.a(lib_a-memcpy.o)
 .debug_pubnames
                0x00000933       0x1e /opt/altera/13.0sp1/nios2eds/bin/gnu/H-i686-pc-linux-gnu/bin/../lib/gcc/nios2-elf/4.1.2/../../../../nios2-elf/lib/mno-hw-mul/libc.a(lib_a-memmove.o)
 .debug_pubnames
                0x00000951       0x1d /opt/altera/13.0sp1/nios2eds/bin/gnu/H-i686-pc-linux-gnu/bin/../lib/gcc/nios2-elf/4.1.2/../../../../nios2-elf/lib/mno-hw-mul/libc.a(lib_a-memset.o)
 .debug_pubnames
                0x0000096e      0x13a /opt/altera/13.0sp1/nios2eds/bin/gnu/H-i686-pc-linux-gnu/bin/../lib/gcc/nios2-elf/4.1.2/../../../../nios2-elf/lib/mno-hw-mul/libc.a(lib_a-mprec.o)
 .debug_pubnames
                0x00000aa8       0x27 /opt/altera/13.0sp1/nios2eds/bin/gnu/H-i686-pc-linux-gnu/bin/../lib/gcc/nios2-elf/4.1.2/../../../../nios2-elf/lib/mno-hw-mul/libc.a(lib_a-putc.o)
 .debug_pubnames
                0x00000acf       0x21 /opt/altera/13.0sp1/nios2eds/bin/gnu/H-i686-pc-linux-gnu/bin/../lib/gcc/nios2-elf/4.1.2/../../../../nios2-elf/lib/mno-hw-mul/libc.a(lib_a-reallocr.o)
 .debug_pubnames
                0x00000af0       0x1f /opt/altera/13.0sp1/nios2eds/bin/gnu/H-i686-pc-linux-gnu/bin/../lib/gcc/nios2-elf/4.1.2/../../../../nios2-elf/lib/mno-hw-mul/libc.a(lib_a-s_isinfd.o)
 .debug_pubnames
                0x00000b0f       0x1f /opt/altera/13.0sp1/nios2eds/bin/gnu/H-i686-pc-linux-gnu/bin/../lib/gcc/nios2-elf/4.1.2/../../../../nios2-elf/lib/mno-hw-mul/libc.a(lib_a-s_isnand.o)
 .debug_pubnames
                0x00000b2e       0x1e /opt/altera/13.0sp1/nios2eds/bin/gnu/H-i686-pc-linux-gnu/bin/../lib/gcc/nios2-elf/4.1.2/../../../../nios2-elf/lib/mno-hw-mul/libc.a(lib_a-sbrkr.o)
 .debug_pubnames
                0x00000b4c       0x44 /opt/altera/13.0sp1/nios2eds/bin/gnu/H-i686-pc-linux-gnu/bin/../lib/gcc/nios2-elf/4.1.2/../../../../nios2-elf/lib/mno-hw-mul/libc.a(lib_a-stdio.o)
 .debug_pubnames
                0x00000b90       0x1d /opt/altera/13.0sp1/nios2eds/bin/gnu/H-i686-pc-linux-gnu/bin/../lib/gcc/nios2-elf/4.1.2/../../../../nios2-elf/lib/mno-hw-mul/libc.a(lib_a-strcmp.o)
 .debug_pubnames
                0x00000bad       0x2c /opt/altera/13.0sp1/nios2eds/bin/gnu/H-i686-pc-linux-gnu/bin/../lib/gcc/nios2-elf/4.1.2/../../../../nios2-elf/lib/mno-hw-mul/libc.a(lib_a-wbuf.o)
 .debug_pubnames
                0x00000bd9       0x1f /opt/altera/13.0sp1/nios2eds/bin/gnu/H-i686-pc-linux-gnu/bin/../lib/gcc/nios2-elf/4.1.2/../../../../nios2-elf/lib/mno-hw-mul/libc.a(lib_a-writer.o)
 .debug_pubnames
                0x00000bf8       0x20 /opt/altera/13.0sp1/nios2eds/bin/gnu/H-i686-pc-linux-gnu/bin/../lib/gcc/nios2-elf/4.1.2/../../../../nios2-elf/lib/mno-hw-mul/libc.a(lib_a-callocr.o)
 .debug_pubnames
                0x00000c18       0x1f /opt/altera/13.0sp1/nios2eds/bin/gnu/H-i686-pc-linux-gnu/bin/../lib/gcc/nios2-elf/4.1.2/../../../../nios2-elf/lib/mno-hw-mul/libc.a(lib_a-closer.o)
 .debug_pubnames
                0x00000c37       0x2b /opt/altera/13.0sp1/nios2eds/bin/gnu/H-i686-pc-linux-gnu/bin/../lib/gcc/nios2-elf/4.1.2/../../../../nios2-elf/lib/mno-hw-mul/libc.a(lib_a-fclose.o)
 .debug_pubnames
                0x00000c62       0x1f /opt/altera/13.0sp1/nios2eds/bin/gnu/H-i686-pc-linux-gnu/bin/../lib/gcc/nios2-elf/4.1.2/../../../../nios2-elf/lib/mno-hw-mul/libc.a(lib_a-fstatr.o)
 .debug_pubnames
                0x00000c81       0x1c /opt/altera/13.0sp1/nios2eds/bin/gnu/H-i686-pc-linux-gnu/bin/../lib/gcc/nios2-elf/4.1.2/../../../../nios2-elf/lib/mno-hw-mul/libc.a(lib_a-int_errno.o)
 .debug_pubnames
                0x00000c9d       0x20 /opt/altera/13.0sp1/nios2eds/bin/gnu/H-i686-pc-linux-gnu/bin/../lib/gcc/nios2-elf/4.1.2/../../../../nios2-elf/lib/mno-hw-mul/libc.a(lib_a-isattyr.o)
 .debug_pubnames
                0x00000cbd       0x1f /opt/altera/13.0sp1/nios2eds/bin/gnu/H-i686-pc-linux-gnu/bin/../lib/gcc/nios2-elf/4.1.2/../../../../nios2-elf/lib/mno-hw-mul/libc.a(lib_a-lseekr.o)
 .debug_pubnames
                0x00000cdc       0x1e /opt/altera/13.0sp1/nios2eds/bin/gnu/H-i686-pc-linux-gnu/bin/../lib/gcc/nios2-elf/4.1.2/../../../../nios2-elf/lib/mno-hw-mul/libc.a(lib_a-readr.o)
 .debug_pubnames
                0x00000cfa       0x20 /opt/altera/13.0sp1/nios2eds/bin/gnu/H-i686-pc-linux-gnu/bin/../lib/gcc/nios2-elf/4.1.2/mno-hw-mul/libgcc.a(_udivdi3.o)
 .debug_pubnames
                0x00000d1a       0x20 /opt/altera/13.0sp1/nios2eds/bin/gnu/H-i686-pc-linux-gnu/bin/../lib/gcc/nios2-elf/4.1.2/mno-hw-mul/libgcc.a(_umoddi3.o)
 .debug_pubnames
                0x00000d3a       0x2c /opt/altera/13.0sp1/nios2eds/bin/gnu/H-i686-pc-linux-gnu/bin/../lib/gcc/nios2-elf/4.1.2/mno-hw-mul/libgcc.a(_addsub_df.o)
 .debug_pubnames
                0x00000d66       0x1f /opt/altera/13.0sp1/nios2eds/bin/gnu/H-i686-pc-linux-gnu/bin/../lib/gcc/nios2-elf/4.1.2/mno-hw-mul/libgcc.a(_mul_df.o)
 .debug_pubnames
                0x00000d85       0x1e /opt/altera/13.0sp1/nios2eds/bin/gnu/H-i686-pc-linux-gnu/bin/../lib/gcc/nios2-elf/4.1.2/mno-hw-mul/libgcc.a(_eq_df.o)
 .debug_pubnames
                0x00000da3       0x1e /opt/altera/13.0sp1/nios2eds/bin/gnu/H-i686-pc-linux-gnu/bin/../lib/gcc/nios2-elf/4.1.2/mno-hw-mul/libgcc.a(_ne_df.o)
 .debug_pubnames
                0x00000dc1       0x1e /opt/altera/13.0sp1/nios2eds/bin/gnu/H-i686-pc-linux-gnu/bin/../lib/gcc/nios2-elf/4.1.2/mno-hw-mul/libgcc.a(_gt_df.o)
 .debug_pubnames
                0x00000ddf       0x1e /opt/altera/13.0sp1/nios2eds/bin/gnu/H-i686-pc-linux-gnu/bin/../lib/gcc/nios2-elf/4.1.2/mno-hw-mul/libgcc.a(_ge_df.o)
 .debug_pubnames
                0x00000dfd       0x1e /opt/altera/13.0sp1/nios2eds/bin/gnu/H-i686-pc-linux-gnu/bin/../lib/gcc/nios2-elf/4.1.2/mno-hw-mul/libgcc.a(_lt_df.o)
 .debug_pubnames
                0x00000e1b       0x22 /opt/altera/13.0sp1/nios2eds/bin/gnu/H-i686-pc-linux-gnu/bin/../lib/gcc/nios2-elf/4.1.2/mno-hw-mul/libgcc.a(_si_to_df.o)
 .debug_pubnames
                0x00000e3d       0x20 /opt/altera/13.0sp1/nios2eds/bin/gnu/H-i686-pc-linux-gnu/bin/../lib/gcc/nios2-elf/4.1.2/mno-hw-mul/libgcc.a(_df_to_si.o)
 .debug_pubnames
                0x00000e5d       0x1f /opt/altera/13.0sp1/nios2eds/bin/gnu/H-i686-pc-linux-gnu/bin/../lib/gcc/nios2-elf/4.1.2/mno-hw-mul/libgcc.a(_muldi3.o)
 .debug_pubnames
                0x00000e7c       0x26 /opt/altera/13.0sp1/nios2eds/bin/gnu/H-i686-pc-linux-gnu/bin/../lib/gcc/nios2-elf/4.1.2/mno-hw-mul/libgcc.a(_fpcmp_parts_df.o)
 .debug_pubnames
                0x00000ea2       0x1c ../../bsp/single-rtos_bsp//libucosii_bsp.a(alt_close.o)
 .debug_pubnames
                0x00000ebe       0x78 ../../bsp/single-rtos_bsp//libucosii_bsp.a(alt_dev.o)
 .debug_pubnames
                0x00000f36       0x20 ../../bsp/single-rtos_bsp//libucosii_bsp.a(alt_errno.o)
 .debug_pubnames
                0x00000f56       0x1c ../../bsp/single-rtos_bsp//libucosii_bsp.a(alt_fstat.o)
 .debug_pubnames
                0x00000f72       0x1d ../../bsp/single-rtos_bsp//libucosii_bsp.a(alt_isatty.o)
 .debug_pubnames
                0x00000f8f       0x1f ../../bsp/single-rtos_bsp//libucosii_bsp.a(alt_load.o)
 .debug_pubnames
                0x00000fae       0x1c ../../bsp/single-rtos_bsp//libucosii_bsp.a(alt_lseek.o)
 .debug_pubnames
                0x00000fca       0x46 ../../bsp/single-rtos_bsp//libucosii_bsp.a(alt_main.o)
 .debug_pubnames
                0x00001010       0x1b ../../bsp/single-rtos_bsp//libucosii_bsp.a(alt_read.o)
 .debug_pubnames
                0x0000102b       0x25 ../../bsp/single-rtos_bsp//libucosii_bsp.a(alt_release_fd.o)
 .debug_pubnames
                0x00001050       0x1b ../../bsp/single-rtos_bsp//libucosii_bsp.a(alt_sbrk.o)
 .debug_pubnames
                0x0000106b       0x1c ../../bsp/single-rtos_bsp//libucosii_bsp.a(alt_write.o)
 .debug_pubnames
                0x00001087       0x41 ../../bsp/single-rtos_bsp//libucosii_bsp.a(alt_env_lock.o)
 .debug_pubnames
                0x000010c8       0x48 ../../bsp/single-rtos_bsp//libucosii_bsp.a(alt_malloc_lock.o)
 .debug_pubnames
                0x00001110      0x484 ../../bsp/single-rtos_bsp//libucosii_bsp.a(os_core.o)
 .debug_pubnames
                0x00001594      0x3c5 ../../bsp/single-rtos_bsp//libucosii_bsp.a(os_dbg.o)
 .debug_pubnames
                0x00001959       0xd0 ../../bsp/single-rtos_bsp//libucosii_bsp.a(os_flag.o)
 .debug_pubnames
                0x00001a29       0x7c ../../bsp/single-rtos_bsp//libucosii_bsp.a(os_mem.o)
 .debug_pubnames
                0x00001aa5       0xa9 ../../bsp/single-rtos_bsp//libucosii_bsp.a(os_q.o)
 .debug_pubnames
                0x00001b4e       0x8a ../../bsp/single-rtos_bsp//libucosii_bsp.a(os_sem.o)
 .debug_pubnames
                0x00001bd8       0xe5 ../../bsp/single-rtos_bsp//libucosii_bsp.a(os_task.o)
 .debug_pubnames
                0x00001cbd       0x62 ../../bsp/single-rtos_bsp//libucosii_bsp.a(os_time.o)
 .debug_pubnames
                0x00001d1f       0xa1 ../../bsp/single-rtos_bsp//libucosii_bsp.a(os_tmr.o)
 .debug_pubnames
                0x00001dc0       0x34 ../../bsp/single-rtos_bsp//libucosii_bsp.a(alt_sys_init.o)
 .debug_pubnames
                0x00001df4       0xa5 ../../bsp/single-rtos_bsp//libucosii_bsp.a(altera_avalon_jtag_uart_fd.o)
 .debug_pubnames
                0x00001e99       0x55 ../../bsp/single-rtos_bsp//libucosii_bsp.a(altera_avalon_jtag_uart_init.o)
 .debug_pubnames
                0x00001eee       0x34 ../../bsp/single-rtos_bsp//libucosii_bsp.a(altera_avalon_jtag_uart_ioctl.o)
 .debug_pubnames
                0x00001f22       0x33 ../../bsp/single-rtos_bsp//libucosii_bsp.a(altera_avalon_jtag_uart_read.o)
 .debug_pubnames
                0x00001f55       0x34 ../../bsp/single-rtos_bsp//libucosii_bsp.a(altera_avalon_jtag_uart_write.o)
 .debug_pubnames
                0x00001f89       0xff ../../bsp/single-rtos_bsp//libucosii_bsp.a(altera_avalon_mutex.o)
 .debug_pubnames
                0x00002088       0x2f ../../bsp/single-rtos_bsp//libucosii_bsp.a(altera_avalon_timer_sc.o)
 .debug_pubnames
                0x000020b7       0x26 ../../bsp/single-rtos_bsp//libucosii_bsp.a(alt_alarm_start.o)
 .debug_pubnames
                0x000020dd       0x2b ../../bsp/single-rtos_bsp//libucosii_bsp.a(alt_dcache_flush_all.o)
 .debug_pubnames
                0x00002108       0x2b ../../bsp/single-rtos_bsp//libucosii_bsp.a(alt_dev_llist_insert.o)
 .debug_pubnames
                0x00002133       0x20 ../../bsp/single-rtos_bsp//libucosii_bsp.a(alt_do_ctors.o)
 .debug_pubnames
                0x00002153       0x20 ../../bsp/single-rtos_bsp//libucosii_bsp.a(alt_do_dtors.o)
 .debug_pubnames
                0x00002173       0x23 ../../bsp/single-rtos_bsp//libucosii_bsp.a(alt_find_dev.o)
 .debug_pubnames
                0x00002196       0x2b ../../bsp/single-rtos_bsp//libucosii_bsp.a(alt_icache_flush_all.o)
 .debug_pubnames
                0x000021c1       0x26 ../../bsp/single-rtos_bsp//libucosii_bsp.a(alt_io_redirect.o)
 .debug_pubnames
                0x000021e7       0x27 ../../bsp/single-rtos_bsp//libucosii_bsp.a(alt_irq_register.o)
 .debug_pubnames
                0x0000220e       0x3b ../../bsp/single-rtos_bsp//libucosii_bsp.a(alt_irq_vars.o)
 .debug_pubnames
                0x00002249       0x1b ../../bsp/single-rtos_bsp//libucosii_bsp.a(alt_open.o)
 .debug_pubnames
                0x00002264       0x68 ../../bsp/single-rtos_bsp//libucosii_bsp.a(alt_tick.o)
 .debug_pubnames
                0x000022cc       0x31 ../../bsp/single-rtos_bsp//libucosii_bsp.a(altera_nios2_qsys_irq.o)
 .debug_pubnames
                0x000022fd       0xcd ../../bsp/single-rtos_bsp//libucosii_bsp.a(os_cpu_c.o)
 .debug_pubnames
                0x000023ca       0x24 ../../bsp/single-rtos_bsp//libucosii_bsp.a(alt_find_file.o)
 .debug_pubnames
                0x000023ee       0x21 ../../bsp/single-rtos_bsp//libucosii_bsp.a(alt_get_fd.o)
 .debug_pubnames
                0x0000240f       0x32 ../../bsp/single-rtos_bsp//libucosii_bsp.a(alt_irq_handler.o)
 .debug_pubnames
                0x00002441       0x2a /opt/altera/13.0sp1/nios2eds/bin/gnu/H-i686-pc-linux-gnu/bin/../lib/gcc/nios2-elf/4.1.2/../../../../nios2-elf/lib/mno-hw-mul/libc.a(lib_a-atexit.o)
 .debug_pubnames
                0x0000246b       0x1b /opt/altera/13.0sp1/nios2eds/bin/gnu/H-i686-pc-linux-gnu/bin/../lib/gcc/nios2-elf/4.1.2/../../../../nios2-elf/lib/mno-hw-mul/libc.a(lib_a-exit.o)
 .debug_pubnames
                0x00002486       0x1d /opt/altera/13.0sp1/nios2eds/bin/gnu/H-i686-pc-linux-gnu/bin/../lib/gcc/nios2-elf/4.1.2/../../../../nios2-elf/lib/mno-hw-mul/libc.a(lib_a-memcmp.o)
 .debug_pubnames
                0x000024a3       0x2a /opt/altera/13.0sp1/nios2eds/bin/gnu/H-i686-pc-linux-gnu/bin/../lib/gcc/nios2-elf/4.1.2/../../../../nios2-elf/lib/mno-hw-mul/libc.a(lib_a-__atexit.o)
 .debug_pubnames
                0x000024cd       0x27 /opt/altera/13.0sp1/nios2eds/bin/gnu/H-i686-pc-linux-gnu/bin/../lib/gcc/nios2-elf/4.1.2/../../../../nios2-elf/lib/mno-hw-mul/libc.a(lib_a-__call_atexit.o)
 .debug_pubnames
                0x000024f4       0x23 /opt/altera/13.0sp1/nios2eds/bin/gnu/H-i686-pc-linux-gnu/bin/../lib/gcc/nios2-elf/4.1.2/mno-hw-mul/libgcc.a(_fixunsdfsi.o)
 .debug_pubnames
                0x00002517       0x1c ../../bsp/single-rtos_bsp//libucosii_bsp.a(alt_exit.o)

.debug_info     0x00000000    0x2d216
 *(.debug_info .gnu.linkonce.wi.*)
 .debug_info    0x00000000       0x74 ../../bsp/single-rtos_bsp//obj/HAL/src/crt0.o
 .debug_info    0x00000074      0xbba obj/default/src_0/cpu_0.o
 .debug_info    0x00000c2e      0x39b /opt/altera/13.0sp1/nios2eds/bin/gnu/H-i686-pc-linux-gnu/bin/../lib/gcc/nios2-elf/4.1.2/mno-hw-mul/libgcc.a(_div_df.o)
 .debug_info    0x00000fc9      0x164 /opt/altera/13.0sp1/nios2eds/bin/gnu/H-i686-pc-linux-gnu/bin/../lib/gcc/nios2-elf/4.1.2/mno-hw-mul/libgcc.a(_thenan_df.o)
 .debug_info    0x0000112d      0x213 /opt/altera/13.0sp1/nios2eds/bin/gnu/H-i686-pc-linux-gnu/bin/../lib/gcc/nios2-elf/4.1.2/mno-hw-mul/libgcc.a(_usi_to_df.o)
 .debug_info    0x00001340      0x21c /opt/altera/13.0sp1/nios2eds/bin/gnu/H-i686-pc-linux-gnu/bin/../lib/gcc/nios2-elf/4.1.2/mno-hw-mul/libgcc.a(lib2-divmod.o)
 .debug_info    0x0000155c       0xf3 /opt/altera/13.0sp1/nios2eds/bin/gnu/H-i686-pc-linux-gnu/bin/../lib/gcc/nios2-elf/4.1.2/mno-hw-mul/libgcc.a(lib2-mul.o)
 .debug_info    0x0000164f      0x130 /opt/altera/13.0sp1/nios2eds/bin/gnu/H-i686-pc-linux-gnu/bin/../lib/gcc/nios2-elf/4.1.2/mno-hw-mul/libgcc.a(_clzsi2.o)
 .debug_info    0x0000177f      0x2fc /opt/altera/13.0sp1/nios2eds/bin/gnu/H-i686-pc-linux-gnu/bin/../lib/gcc/nios2-elf/4.1.2/mno-hw-mul/libgcc.a(_pack_df.o)
 .debug_info    0x00001a7b      0x268 /opt/altera/13.0sp1/nios2eds/bin/gnu/H-i686-pc-linux-gnu/bin/../lib/gcc/nios2-elf/4.1.2/mno-hw-mul/libgcc.a(_unpack_df.o)
 .debug_info    0x00001ce3       0xc9 /opt/altera/13.0sp1/nios2eds/bin/gnu/H-i686-pc-linux-gnu/bin/../lib/gcc/nios2-elf/4.1.2/mno-hw-mul/libgcc.a(_clz.o)
 .debug_info    0x00001dac      0x9d1 /opt/altera/13.0sp1/nios2eds/bin/gnu/H-i686-pc-linux-gnu/bin/../lib/gcc/nios2-elf/4.1.2/../../../../nios2-elf/lib/mno-hw-mul/libc.a(lib_a-printf.o)
 .debug_info    0x0000277d      0x972 /opt/altera/13.0sp1/nios2eds/bin/gnu/H-i686-pc-linux-gnu/bin/../lib/gcc/nios2-elf/4.1.2/../../../../nios2-elf/lib/mno-hw-mul/libc.a(lib_a-putchar.o)
 .debug_info    0x000030ef      0xa25 /opt/altera/13.0sp1/nios2eds/bin/gnu/H-i686-pc-linux-gnu/bin/../lib/gcc/nios2-elf/4.1.2/../../../../nios2-elf/lib/mno-hw-mul/libc.a(lib_a-puts.o)
 .debug_info    0x00003b14       0xdb /opt/altera/13.0sp1/nios2eds/bin/gnu/H-i686-pc-linux-gnu/bin/../lib/gcc/nios2-elf/4.1.2/../../../../nios2-elf/lib/mno-hw-mul/libc.a(lib_a-strlen.o)
 .debug_info    0x00003bef     0x10d5 /opt/altera/13.0sp1/nios2eds/bin/gnu/H-i686-pc-linux-gnu/bin/../lib/gcc/nios2-elf/4.1.2/../../../../nios2-elf/lib/mno-hw-mul/libc.a(lib_a-vfprintf.o)
 .debug_info    0x00004cc4      0x95d /opt/altera/13.0sp1/nios2eds/bin/gnu/H-i686-pc-linux-gnu/bin/../lib/gcc/nios2-elf/4.1.2/../../../../nios2-elf/lib/mno-hw-mul/libc.a(lib_a-wsetup.o)
 .debug_info    0x00005621      0xd6f /opt/altera/13.0sp1/nios2eds/bin/gnu/H-i686-pc-linux-gnu/bin/../lib/gcc/nios2-elf/4.1.2/../../../../nios2-elf/lib/mno-hw-mul/libc.a(lib_a-dtoa.o)
 .debug_info    0x00006390      0x9fe /opt/altera/13.0sp1/nios2eds/bin/gnu/H-i686-pc-linux-gnu/bin/../lib/gcc/nios2-elf/4.1.2/../../../../nios2-elf/lib/mno-hw-mul/libc.a(lib_a-fflush.o)
 .debug_info    0x00006d8e      0xb72 /opt/altera/13.0sp1/nios2eds/bin/gnu/H-i686-pc-linux-gnu/bin/../lib/gcc/nios2-elf/4.1.2/../../../../nios2-elf/lib/mno-hw-mul/libc.a(lib_a-findfp.o)
 .debug_info    0x00007900      0xbc9 /opt/altera/13.0sp1/nios2eds/bin/gnu/H-i686-pc-linux-gnu/bin/../lib/gcc/nios2-elf/4.1.2/../../../../nios2-elf/lib/mno-hw-mul/libc.a(lib_a-freer.o)
 .debug_info    0x000084c9      0xa88 /opt/altera/13.0sp1/nios2eds/bin/gnu/H-i686-pc-linux-gnu/bin/../lib/gcc/nios2-elf/4.1.2/../../../../nios2-elf/lib/mno-hw-mul/libc.a(lib_a-fvwrite.o)
 .debug_info    0x00008f51      0xaed /opt/altera/13.0sp1/nios2eds/bin/gnu/H-i686-pc-linux-gnu/bin/../lib/gcc/nios2-elf/4.1.2/../../../../nios2-elf/lib/mno-hw-mul/libc.a(lib_a-fwalk.o)
 .debug_info    0x00009a3e      0x93d /opt/altera/13.0sp1/nios2eds/bin/gnu/H-i686-pc-linux-gnu/bin/../lib/gcc/nios2-elf/4.1.2/../../../../nios2-elf/lib/mno-hw-mul/libc.a(lib_a-impure.o)
 .debug_info    0x0000a37b      0xb97 /opt/altera/13.0sp1/nios2eds/bin/gnu/H-i686-pc-linux-gnu/bin/../lib/gcc/nios2-elf/4.1.2/../../../../nios2-elf/lib/mno-hw-mul/libc.a(lib_a-locale.o)
 .debug_info    0x0000af12      0xb1a /opt/altera/13.0sp1/nios2eds/bin/gnu/H-i686-pc-linux-gnu/bin/../lib/gcc/nios2-elf/4.1.2/../../../../nios2-elf/lib/mno-hw-mul/libc.a(lib_a-makebuf.o)
 .debug_info    0x0000ba2c      0xcd0 /opt/altera/13.0sp1/nios2eds/bin/gnu/H-i686-pc-linux-gnu/bin/../lib/gcc/nios2-elf/4.1.2/../../../../nios2-elf/lib/mno-hw-mul/libc.a(lib_a-mallocr.o)
 .debug_info    0x0000c6fc      0x138 /opt/altera/13.0sp1/nios2eds/bin/gnu/H-i686-pc-linux-gnu/bin/../lib/gcc/nios2-elf/4.1.2/../../../../nios2-elf/lib/mno-hw-mul/libc.a(lib_a-memchr.o)
 .debug_info    0x0000c834      0x106 /opt/altera/13.0sp1/nios2eds/bin/gnu/H-i686-pc-linux-gnu/bin/../lib/gcc/nios2-elf/4.1.2/../../../../nios2-elf/lib/mno-hw-mul/libc.a(lib_a-memcpy.o)
 .debug_info    0x0000c93a      0x13e /opt/altera/13.0sp1/nios2eds/bin/gnu/H-i686-pc-linux-gnu/bin/../lib/gcc/nios2-elf/4.1.2/../../../../nios2-elf/lib/mno-hw-mul/libc.a(lib_a-memmove.o)
 .debug_info    0x0000ca78      0x113 /opt/altera/13.0sp1/nios2eds/bin/gnu/H-i686-pc-linux-gnu/bin/../lib/gcc/nios2-elf/4.1.2/../../../../nios2-elf/lib/mno-hw-mul/libc.a(lib_a-memset.o)
 .debug_info    0x0000cb8b     0x143b /opt/altera/13.0sp1/nios2eds/bin/gnu/H-i686-pc-linux-gnu/bin/../lib/gcc/nios2-elf/4.1.2/../../../../nios2-elf/lib/mno-hw-mul/libc.a(lib_a-mprec.o)
 .debug_info    0x0000dfc6      0x9c1 /opt/altera/13.0sp1/nios2eds/bin/gnu/H-i686-pc-linux-gnu/bin/../lib/gcc/nios2-elf/4.1.2/../../../../nios2-elf/lib/mno-hw-mul/libc.a(lib_a-putc.o)
 .debug_info    0x0000e987      0xbd7 /opt/altera/13.0sp1/nios2eds/bin/gnu/H-i686-pc-linux-gnu/bin/../lib/gcc/nios2-elf/4.1.2/../../../../nios2-elf/lib/mno-hw-mul/libc.a(lib_a-reallocr.o)
 .debug_info    0x0000f55e       0xd7 /opt/altera/13.0sp1/nios2eds/bin/gnu/H-i686-pc-linux-gnu/bin/../lib/gcc/nios2-elf/4.1.2/../../../../nios2-elf/lib/mno-hw-mul/libc.a(lib_a-s_isinfd.o)
 .debug_info    0x0000f635       0xd5 /opt/altera/13.0sp1/nios2eds/bin/gnu/H-i686-pc-linux-gnu/bin/../lib/gcc/nios2-elf/4.1.2/../../../../nios2-elf/lib/mno-hw-mul/libc.a(lib_a-s_isnand.o)
 .debug_info    0x0000f70a      0x962 /opt/altera/13.0sp1/nios2eds/bin/gnu/H-i686-pc-linux-gnu/bin/../lib/gcc/nios2-elf/4.1.2/../../../../nios2-elf/lib/mno-hw-mul/libc.a(lib_a-sbrkr.o)
 .debug_info    0x0001006c      0xaac /opt/altera/13.0sp1/nios2eds/bin/gnu/H-i686-pc-linux-gnu/bin/../lib/gcc/nios2-elf/4.1.2/../../../../nios2-elf/lib/mno-hw-mul/libc.a(lib_a-stdio.o)
 .debug_info    0x00010b18       0xdd /opt/altera/13.0sp1/nios2eds/bin/gnu/H-i686-pc-linux-gnu/bin/../lib/gcc/nios2-elf/4.1.2/../../../../nios2-elf/lib/mno-hw-mul/libc.a(lib_a-strcmp.o)
 .debug_info    0x00010bf5      0x9ae /opt/altera/13.0sp1/nios2eds/bin/gnu/H-i686-pc-linux-gnu/bin/../lib/gcc/nios2-elf/4.1.2/../../../../nios2-elf/lib/mno-hw-mul/libc.a(lib_a-wbuf.o)
 .debug_info    0x000115a3      0x993 /opt/altera/13.0sp1/nios2eds/bin/gnu/H-i686-pc-linux-gnu/bin/../lib/gcc/nios2-elf/4.1.2/../../../../nios2-elf/lib/mno-hw-mul/libc.a(lib_a-writer.o)
 .debug_info    0x00011f36      0xa1b /opt/altera/13.0sp1/nios2eds/bin/gnu/H-i686-pc-linux-gnu/bin/../lib/gcc/nios2-elf/4.1.2/../../../../nios2-elf/lib/mno-hw-mul/libc.a(lib_a-callocr.o)
 .debug_info    0x00012951      0x958 /opt/altera/13.0sp1/nios2eds/bin/gnu/H-i686-pc-linux-gnu/bin/../lib/gcc/nios2-elf/4.1.2/../../../../nios2-elf/lib/mno-hw-mul/libc.a(lib_a-closer.o)
 .debug_info    0x000132a9      0x994 /opt/altera/13.0sp1/nios2eds/bin/gnu/H-i686-pc-linux-gnu/bin/../lib/gcc/nios2-elf/4.1.2/../../../../nios2-elf/lib/mno-hw-mul/libc.a(lib_a-fclose.o)
 .debug_info    0x00013c3d      0xafc /opt/altera/13.0sp1/nios2eds/bin/gnu/H-i686-pc-linux-gnu/bin/../lib/gcc/nios2-elf/4.1.2/../../../../nios2-elf/lib/mno-hw-mul/libc.a(lib_a-fstatr.o)
 .debug_info    0x00014739       0x8c /opt/altera/13.0sp1/nios2eds/bin/gnu/H-i686-pc-linux-gnu/bin/../lib/gcc/nios2-elf/4.1.2/../../../../nios2-elf/lib/mno-hw-mul/libc.a(lib_a-int_errno.o)
 .debug_info    0x000147c5      0x958 /opt/altera/13.0sp1/nios2eds/bin/gnu/H-i686-pc-linux-gnu/bin/../lib/gcc/nios2-elf/4.1.2/../../../../nios2-elf/lib/mno-hw-mul/libc.a(lib_a-isattyr.o)
 .debug_info    0x0001511d      0x981 /opt/altera/13.0sp1/nios2eds/bin/gnu/H-i686-pc-linux-gnu/bin/../lib/gcc/nios2-elf/4.1.2/../../../../nios2-elf/lib/mno-hw-mul/libc.a(lib_a-lseekr.o)
 .debug_info    0x00015a9e      0x98c /opt/altera/13.0sp1/nios2eds/bin/gnu/H-i686-pc-linux-gnu/bin/../lib/gcc/nios2-elf/4.1.2/../../../../nios2-elf/lib/mno-hw-mul/libc.a(lib_a-readr.o)
 .debug_info    0x0001642a      0x71c /opt/altera/13.0sp1/nios2eds/bin/gnu/H-i686-pc-linux-gnu/bin/../lib/gcc/nios2-elf/4.1.2/mno-hw-mul/libgcc.a(_udivdi3.o)
 .debug_info    0x00016b46      0x749 /opt/altera/13.0sp1/nios2eds/bin/gnu/H-i686-pc-linux-gnu/bin/../lib/gcc/nios2-elf/4.1.2/mno-hw-mul/libgcc.a(_umoddi3.o)
 .debug_info    0x0001728f      0x493 /opt/altera/13.0sp1/nios2eds/bin/gnu/H-i686-pc-linux-gnu/bin/../lib/gcc/nios2-elf/4.1.2/mno-hw-mul/libgcc.a(_addsub_df.o)
 .debug_info    0x00017722      0x488 /opt/altera/13.0sp1/nios2eds/bin/gnu/H-i686-pc-linux-gnu/bin/../lib/gcc/nios2-elf/4.1.2/mno-hw-mul/libgcc.a(_mul_df.o)
 .debug_info    0x00017baa      0x29d /opt/altera/13.0sp1/nios2eds/bin/gnu/H-i686-pc-linux-gnu/bin/../lib/gcc/nios2-elf/4.1.2/mno-hw-mul/libgcc.a(_eq_df.o)
 .debug_info    0x00017e47      0x29d /opt/altera/13.0sp1/nios2eds/bin/gnu/H-i686-pc-linux-gnu/bin/../lib/gcc/nios2-elf/4.1.2/mno-hw-mul/libgcc.a(_ne_df.o)
 .debug_info    0x000180e4      0x29d /opt/altera/13.0sp1/nios2eds/bin/gnu/H-i686-pc-linux-gnu/bin/../lib/gcc/nios2-elf/4.1.2/mno-hw-mul/libgcc.a(_gt_df.o)
 .debug_info    0x00018381      0x29d /opt/altera/13.0sp1/nios2eds/bin/gnu/H-i686-pc-linux-gnu/bin/../lib/gcc/nios2-elf/4.1.2/mno-hw-mul/libgcc.a(_ge_df.o)
 .debug_info    0x0001861e      0x29d /opt/altera/13.0sp1/nios2eds/bin/gnu/H-i686-pc-linux-gnu/bin/../lib/gcc/nios2-elf/4.1.2/mno-hw-mul/libgcc.a(_lt_df.o)
 .debug_info    0x000188bb      0x218 /opt/altera/13.0sp1/nios2eds/bin/gnu/H-i686-pc-linux-gnu/bin/../lib/gcc/nios2-elf/4.1.2/mno-hw-mul/libgcc.a(_si_to_df.o)
 .debug_info    0x00018ad3      0x2cd /opt/altera/13.0sp1/nios2eds/bin/gnu/H-i686-pc-linux-gnu/bin/../lib/gcc/nios2-elf/4.1.2/mno-hw-mul/libgcc.a(_df_to_si.o)
 .debug_info    0x00018da0      0x210 /opt/altera/13.0sp1/nios2eds/bin/gnu/H-i686-pc-linux-gnu/bin/../lib/gcc/nios2-elf/4.1.2/mno-hw-mul/libgcc.a(_muldi3.o)
 .debug_info    0x00018fb0      0x21b /opt/altera/13.0sp1/nios2eds/bin/gnu/H-i686-pc-linux-gnu/bin/../lib/gcc/nios2-elf/4.1.2/mno-hw-mul/libgcc.a(_fpcmp_parts_df.o)
 .debug_info    0x000191cb      0x3a1 ../../bsp/single-rtos_bsp//libucosii_bsp.a(alt_close.o)
 .debug_info    0x0001956c      0x5f1 ../../bsp/single-rtos_bsp//libucosii_bsp.a(alt_dev.o)
 .debug_info    0x00019b5d       0xab ../../bsp/single-rtos_bsp//libucosii_bsp.a(alt_errno.o)
 .debug_info    0x00019c08      0x52f ../../bsp/single-rtos_bsp//libucosii_bsp.a(alt_fstat.o)
 .debug_info    0x0001a137      0x530 ../../bsp/single-rtos_bsp//libucosii_bsp.a(alt_isatty.o)
 .debug_info    0x0001a667      0x12e ../../bsp/single-rtos_bsp//libucosii_bsp.a(alt_load.o)
 .debug_info    0x0001a795      0x3da ../../bsp/single-rtos_bsp//libucosii_bsp.a(alt_lseek.o)
 .debug_info    0x0001ab6f      0x299 ../../bsp/single-rtos_bsp//libucosii_bsp.a(alt_main.o)
 .debug_info    0x0001ae08      0x553 ../../bsp/single-rtos_bsp//libucosii_bsp.a(alt_read.o)
 .debug_info    0x0001b35b      0x33d ../../bsp/single-rtos_bsp//libucosii_bsp.a(alt_release_fd.o)
 .debug_info    0x0001b698      0x1cf ../../bsp/single-rtos_bsp//libucosii_bsp.a(alt_sbrk.o)
 .debug_info    0x0001b867      0x55a ../../bsp/single-rtos_bsp//libucosii_bsp.a(alt_write.o)
 .debug_info    0x0001bdc1      0xd75 ../../bsp/single-rtos_bsp//libucosii_bsp.a(alt_env_lock.o)
 .debug_info    0x0001cb36      0xea8 ../../bsp/single-rtos_bsp//libucosii_bsp.a(alt_malloc_lock.o)
 .debug_info    0x0001d9de     0x1997 ../../bsp/single-rtos_bsp//libucosii_bsp.a(os_core.o)
 .debug_info    0x0001f375      0xd75 ../../bsp/single-rtos_bsp//libucosii_bsp.a(os_dbg.o)
 .debug_info    0x000200ea      0xeda ../../bsp/single-rtos_bsp//libucosii_bsp.a(os_flag.o)
 .debug_info    0x00020fc4      0x691 ../../bsp/single-rtos_bsp//libucosii_bsp.a(os_mem.o)
 .debug_info    0x00021655      0xde6 ../../bsp/single-rtos_bsp//libucosii_bsp.a(os_q.o)
 .debug_info    0x0002243b      0xa3b ../../bsp/single-rtos_bsp//libucosii_bsp.a(os_sem.o)
 .debug_info    0x00022e76     0x10e6 ../../bsp/single-rtos_bsp//libucosii_bsp.a(os_task.o)
 .debug_info    0x00023f5c      0x731 ../../bsp/single-rtos_bsp//libucosii_bsp.a(os_time.o)
 .debug_info    0x0002468d      0x8ae ../../bsp/single-rtos_bsp//libucosii_bsp.a(os_tmr.o)
 .debug_info    0x00024f3b      0x862 ../../bsp/single-rtos_bsp//libucosii_bsp.a(alt_sys_init.o)
 .debug_info    0x0002579d      0x6ff ../../bsp/single-rtos_bsp//libucosii_bsp.a(altera_avalon_jtag_uart_fd.o)
 .debug_info    0x00025e9c      0x6cd ../../bsp/single-rtos_bsp//libucosii_bsp.a(altera_avalon_jtag_uart_init.o)
 .debug_info    0x00026569      0x428 ../../bsp/single-rtos_bsp//libucosii_bsp.a(altera_avalon_jtag_uart_ioctl.o)
 .debug_info    0x00026991      0x5c3 ../../bsp/single-rtos_bsp//libucosii_bsp.a(altera_avalon_jtag_uart_read.o)
 .debug_info    0x00026f54      0x5b2 ../../bsp/single-rtos_bsp//libucosii_bsp.a(altera_avalon_jtag_uart_write.o)
 .debug_info    0x00027506      0x514 ../../bsp/single-rtos_bsp//libucosii_bsp.a(altera_avalon_mutex.o)
 .debug_info    0x00027a1a      0x247 ../../bsp/single-rtos_bsp//libucosii_bsp.a(altera_avalon_timer_sc.o)
 .debug_info    0x00027c61      0x2de ../../bsp/single-rtos_bsp//libucosii_bsp.a(alt_alarm_start.o)
 .debug_info    0x00027f3f       0x8d ../../bsp/single-rtos_bsp//libucosii_bsp.a(alt_dcache_flush_all.o)
 .debug_info    0x00027fcc      0x1b7 ../../bsp/single-rtos_bsp//libucosii_bsp.a(alt_dev_llist_insert.o)
 .debug_info    0x00028183       0x8d ../../bsp/single-rtos_bsp//libucosii_bsp.a(alt_do_ctors.o)
 .debug_info    0x00028210       0x8d ../../bsp/single-rtos_bsp//libucosii_bsp.a(alt_do_dtors.o)
 .debug_info    0x0002829d      0x362 ../../bsp/single-rtos_bsp//libucosii_bsp.a(alt_find_dev.o)
 .debug_info    0x000285ff       0x8d ../../bsp/single-rtos_bsp//libucosii_bsp.a(alt_icache_flush_all.o)
 .debug_info    0x0002868c      0x548 ../../bsp/single-rtos_bsp//libucosii_bsp.a(alt_io_redirect.o)
 .debug_info    0x00028bd4      0x321 ../../bsp/single-rtos_bsp//libucosii_bsp.a(alt_irq_register.o)
 .debug_info    0x00028ef5       0x92 ../../bsp/single-rtos_bsp//libucosii_bsp.a(alt_irq_vars.o)
 .debug_info    0x00028f87      0x453 ../../bsp/single-rtos_bsp//libucosii_bsp.a(alt_open.o)
 .debug_info    0x000293da      0x2c9 ../../bsp/single-rtos_bsp//libucosii_bsp.a(alt_tick.o)
 .debug_info    0x000296a3       0xb7 ../../bsp/single-rtos_bsp//libucosii_bsp.a(altera_nios2_qsys_irq.o)
 .debug_info    0x0002975a       0x7c ../../bsp/single-rtos_bsp//libucosii_bsp.a(os_cpu_a.o)
 .debug_info    0x000297d6      0xe0f ../../bsp/single-rtos_bsp//libucosii_bsp.a(os_cpu_c.o)
 .debug_info    0x0002a5e5      0x360 ../../bsp/single-rtos_bsp//libucosii_bsp.a(alt_find_file.o)
 .debug_info    0x0002a945      0x494 ../../bsp/single-rtos_bsp//libucosii_bsp.a(alt_get_fd.o)
 .debug_info    0x0002add9       0x7d ../../bsp/single-rtos_bsp//libucosii_bsp.a(alt_irq_entry.o)
 .debug_info    0x0002ae56      0x1cb ../../bsp/single-rtos_bsp//libucosii_bsp.a(alt_irq_handler.o)
 .debug_info    0x0002b021       0x83 ../../bsp/single-rtos_bsp//libucosii_bsp.a(alt_exception_entry.o)
 .debug_info    0x0002b0a4      0x181 /opt/altera/13.0sp1/nios2eds/bin/gnu/H-i686-pc-linux-gnu/bin/../lib/gcc/nios2-elf/4.1.2/../../../../nios2-elf/lib/mno-hw-mul/libc.a(lib_a-atexit.o)
 .debug_info    0x0002b225      0x93f /opt/altera/13.0sp1/nios2eds/bin/gnu/H-i686-pc-linux-gnu/bin/../lib/gcc/nios2-elf/4.1.2/../../../../nios2-elf/lib/mno-hw-mul/libc.a(lib_a-exit.o)
 .debug_info    0x0002bb64      0x115 /opt/altera/13.0sp1/nios2eds/bin/gnu/H-i686-pc-linux-gnu/bin/../lib/gcc/nios2-elf/4.1.2/../../../../nios2-elf/lib/mno-hw-mul/libc.a(lib_a-memcmp.o)
 .debug_info    0x0002bc79      0x99c /opt/altera/13.0sp1/nios2eds/bin/gnu/H-i686-pc-linux-gnu/bin/../lib/gcc/nios2-elf/4.1.2/../../../../nios2-elf/lib/mno-hw-mul/libc.a(lib_a-__atexit.o)
 .debug_info    0x0002c615      0x9e2 /opt/altera/13.0sp1/nios2eds/bin/gnu/H-i686-pc-linux-gnu/bin/../lib/gcc/nios2-elf/4.1.2/../../../../nios2-elf/lib/mno-hw-mul/libc.a(lib_a-__call_atexit.o)
 .debug_info    0x0002cff7       0xce /opt/altera/13.0sp1/nios2eds/bin/gnu/H-i686-pc-linux-gnu/bin/../lib/gcc/nios2-elf/4.1.2/mno-hw-mul/libgcc.a(_fixunsdfsi.o)
 .debug_info    0x0002d0c5      0x151 ../../bsp/single-rtos_bsp//libucosii_bsp.a(alt_exit.o)

.debug_abbrev   0x00000000     0xa2f7
 *(.debug_abbrev)
 .debug_abbrev  0x00000000       0x12 ../../bsp/single-rtos_bsp//obj/HAL/src/crt0.o
 .debug_abbrev  0x00000012      0x1de obj/default/src_0/cpu_0.o
 .debug_abbrev  0x000001f0      0x1e3 /opt/altera/13.0sp1/nios2eds/bin/gnu/H-i686-pc-linux-gnu/bin/../lib/gcc/nios2-elf/4.1.2/mno-hw-mul/libgcc.a(_div_df.o)
 .debug_abbrev  0x000003d3       0xba /opt/altera/13.0sp1/nios2eds/bin/gnu/H-i686-pc-linux-gnu/bin/../lib/gcc/nios2-elf/4.1.2/mno-hw-mul/libgcc.a(_thenan_df.o)
 .debug_abbrev  0x0000048d      0x155 /opt/altera/13.0sp1/nios2eds/bin/gnu/H-i686-pc-linux-gnu/bin/../lib/gcc/nios2-elf/4.1.2/mno-hw-mul/libgcc.a(_usi_to_df.o)
 .debug_abbrev  0x000005e2       0xe0 /opt/altera/13.0sp1/nios2eds/bin/gnu/H-i686-pc-linux-gnu/bin/../lib/gcc/nios2-elf/4.1.2/mno-hw-mul/libgcc.a(lib2-divmod.o)
 .debug_abbrev  0x000006c2       0x7b /opt/altera/13.0sp1/nios2eds/bin/gnu/H-i686-pc-linux-gnu/bin/../lib/gcc/nios2-elf/4.1.2/mno-hw-mul/libgcc.a(lib2-mul.o)
 .debug_abbrev  0x0000073d       0xb9 /opt/altera/13.0sp1/nios2eds/bin/gnu/H-i686-pc-linux-gnu/bin/../lib/gcc/nios2-elf/4.1.2/mno-hw-mul/libgcc.a(_clzsi2.o)
 .debug_abbrev  0x000007f6      0x1b1 /opt/altera/13.0sp1/nios2eds/bin/gnu/H-i686-pc-linux-gnu/bin/../lib/gcc/nios2-elf/4.1.2/mno-hw-mul/libgcc.a(_pack_df.o)
 .debug_abbrev  0x000009a7      0x149 /opt/altera/13.0sp1/nios2eds/bin/gnu/H-i686-pc-linux-gnu/bin/../lib/gcc/nios2-elf/4.1.2/mno-hw-mul/libgcc.a(_unpack_df.o)
 .debug_abbrev  0x00000af0       0x61 /opt/altera/13.0sp1/nios2eds/bin/gnu/H-i686-pc-linux-gnu/bin/../lib/gcc/nios2-elf/4.1.2/mno-hw-mul/libgcc.a(_clz.o)
 .debug_abbrev  0x00000b51      0x191 /opt/altera/13.0sp1/nios2eds/bin/gnu/H-i686-pc-linux-gnu/bin/../lib/gcc/nios2-elf/4.1.2/../../../../nios2-elf/lib/mno-hw-mul/libc.a(lib_a-printf.o)
 .debug_abbrev  0x00000ce2      0x170 /opt/altera/13.0sp1/nios2eds/bin/gnu/H-i686-pc-linux-gnu/bin/../lib/gcc/nios2-elf/4.1.2/../../../../nios2-elf/lib/mno-hw-mul/libc.a(lib_a-putchar.o)
 .debug_abbrev  0x00000e52      0x1ac /opt/altera/13.0sp1/nios2eds/bin/gnu/H-i686-pc-linux-gnu/bin/../lib/gcc/nios2-elf/4.1.2/../../../../nios2-elf/lib/mno-hw-mul/libc.a(lib_a-puts.o)
 .debug_abbrev  0x00000ffe       0x8b /opt/altera/13.0sp1/nios2eds/bin/gnu/H-i686-pc-linux-gnu/bin/../lib/gcc/nios2-elf/4.1.2/../../../../nios2-elf/lib/mno-hw-mul/libc.a(lib_a-strlen.o)
 .debug_abbrev  0x00001089      0x30a /opt/altera/13.0sp1/nios2eds/bin/gnu/H-i686-pc-linux-gnu/bin/../lib/gcc/nios2-elf/4.1.2/../../../../nios2-elf/lib/mno-hw-mul/libc.a(lib_a-vfprintf.o)
 .debug_abbrev  0x00001393      0x170 /opt/altera/13.0sp1/nios2eds/bin/gnu/H-i686-pc-linux-gnu/bin/../lib/gcc/nios2-elf/4.1.2/../../../../nios2-elf/lib/mno-hw-mul/libc.a(lib_a-wsetup.o)
 .debug_abbrev  0x00001503      0x232 /opt/altera/13.0sp1/nios2eds/bin/gnu/H-i686-pc-linux-gnu/bin/../lib/gcc/nios2-elf/4.1.2/../../../../nios2-elf/lib/mno-hw-mul/libc.a(lib_a-dtoa.o)
 .debug_abbrev  0x00001735      0x1c6 /opt/altera/13.0sp1/nios2eds/bin/gnu/H-i686-pc-linux-gnu/bin/../lib/gcc/nios2-elf/4.1.2/../../../../nios2-elf/lib/mno-hw-mul/libc.a(lib_a-fflush.o)
 .debug_abbrev  0x000018fb      0x24c /opt/altera/13.0sp1/nios2eds/bin/gnu/H-i686-pc-linux-gnu/bin/../lib/gcc/nios2-elf/4.1.2/../../../../nios2-elf/lib/mno-hw-mul/libc.a(lib_a-findfp.o)
 .debug_abbrev  0x00001b47      0x1d9 /opt/altera/13.0sp1/nios2eds/bin/gnu/H-i686-pc-linux-gnu/bin/../lib/gcc/nios2-elf/4.1.2/../../../../nios2-elf/lib/mno-hw-mul/libc.a(lib_a-freer.o)
 .debug_abbrev  0x00001d20      0x1a3 /opt/altera/13.0sp1/nios2eds/bin/gnu/H-i686-pc-linux-gnu/bin/../lib/gcc/nios2-elf/4.1.2/../../../../nios2-elf/lib/mno-hw-mul/libc.a(lib_a-fvwrite.o)
 .debug_abbrev  0x00001ec3      0x1e3 /opt/altera/13.0sp1/nios2eds/bin/gnu/H-i686-pc-linux-gnu/bin/../lib/gcc/nios2-elf/4.1.2/../../../../nios2-elf/lib/mno-hw-mul/libc.a(lib_a-fwalk.o)
 .debug_abbrev  0x000020a6      0x157 /opt/altera/13.0sp1/nios2eds/bin/gnu/H-i686-pc-linux-gnu/bin/../lib/gcc/nios2-elf/4.1.2/../../../../nios2-elf/lib/mno-hw-mul/libc.a(lib_a-impure.o)
 .debug_abbrev  0x000021fd      0x1ed /opt/altera/13.0sp1/nios2eds/bin/gnu/H-i686-pc-linux-gnu/bin/../lib/gcc/nios2-elf/4.1.2/../../../../nios2-elf/lib/mno-hw-mul/libc.a(lib_a-locale.o)
 .debug_abbrev  0x000023ea      0x197 /opt/altera/13.0sp1/nios2eds/bin/gnu/H-i686-pc-linux-gnu/bin/../lib/gcc/nios2-elf/4.1.2/../../../../nios2-elf/lib/mno-hw-mul/libc.a(lib_a-makebuf.o)
 .debug_abbrev  0x00002581      0x216 /opt/altera/13.0sp1/nios2eds/bin/gnu/H-i686-pc-linux-gnu/bin/../lib/gcc/nios2-elf/4.1.2/../../../../nios2-elf/lib/mno-hw-mul/libc.a(lib_a-mallocr.o)
 .debug_abbrev  0x00002797       0xb5 /opt/altera/13.0sp1/nios2eds/bin/gnu/H-i686-pc-linux-gnu/bin/../lib/gcc/nios2-elf/4.1.2/../../../../nios2-elf/lib/mno-hw-mul/libc.a(lib_a-memchr.o)
 .debug_abbrev  0x0000284c       0xb5 /opt/altera/13.0sp1/nios2eds/bin/gnu/H-i686-pc-linux-gnu/bin/../lib/gcc/nios2-elf/4.1.2/../../../../nios2-elf/lib/mno-hw-mul/libc.a(lib_a-memcpy.o)
 .debug_abbrev  0x00002901       0xb5 /opt/altera/13.0sp1/nios2eds/bin/gnu/H-i686-pc-linux-gnu/bin/../lib/gcc/nios2-elf/4.1.2/../../../../nios2-elf/lib/mno-hw-mul/libc.a(lib_a-memmove.o)
 .debug_abbrev  0x000029b6       0xb8 /opt/altera/13.0sp1/nios2eds/bin/gnu/H-i686-pc-linux-gnu/bin/../lib/gcc/nios2-elf/4.1.2/../../../../nios2-elf/lib/mno-hw-mul/libc.a(lib_a-memset.o)
 .debug_abbrev  0x00002a6e      0x297 /opt/altera/13.0sp1/nios2eds/bin/gnu/H-i686-pc-linux-gnu/bin/../lib/gcc/nios2-elf/4.1.2/../../../../nios2-elf/lib/mno-hw-mul/libc.a(lib_a-mprec.o)
 .debug_abbrev  0x00002d05      0x17f /opt/altera/13.0sp1/nios2eds/bin/gnu/H-i686-pc-linux-gnu/bin/../lib/gcc/nios2-elf/4.1.2/../../../../nios2-elf/lib/mno-hw-mul/libc.a(lib_a-putc.o)
 .debug_abbrev  0x00002e84      0x1c3 /opt/altera/13.0sp1/nios2eds/bin/gnu/H-i686-pc-linux-gnu/bin/../lib/gcc/nios2-elf/4.1.2/../../../../nios2-elf/lib/mno-hw-mul/libc.a(lib_a-reallocr.o)
 .debug_abbrev  0x00003047       0x79 /opt/altera/13.0sp1/nios2eds/bin/gnu/H-i686-pc-linux-gnu/bin/../lib/gcc/nios2-elf/4.1.2/../../../../nios2-elf/lib/mno-hw-mul/libc.a(lib_a-s_isinfd.o)
 .debug_abbrev  0x000030c0       0x79 /opt/altera/13.0sp1/nios2eds/bin/gnu/H-i686-pc-linux-gnu/bin/../lib/gcc/nios2-elf/4.1.2/../../../../nios2-elf/lib/mno-hw-mul/libc.a(lib_a-s_isnand.o)
 .debug_abbrev  0x00003139      0x18c /opt/altera/13.0sp1/nios2eds/bin/gnu/H-i686-pc-linux-gnu/bin/../lib/gcc/nios2-elf/4.1.2/../../../../nios2-elf/lib/mno-hw-mul/libc.a(lib_a-sbrkr.o)
 .debug_abbrev  0x000032c5      0x1c9 /opt/altera/13.0sp1/nios2eds/bin/gnu/H-i686-pc-linux-gnu/bin/../lib/gcc/nios2-elf/4.1.2/../../../../nios2-elf/lib/mno-hw-mul/libc.a(lib_a-stdio.o)
 .debug_abbrev  0x0000348e       0x80 /opt/altera/13.0sp1/nios2eds/bin/gnu/H-i686-pc-linux-gnu/bin/../lib/gcc/nios2-elf/4.1.2/../../../../nios2-elf/lib/mno-hw-mul/libc.a(lib_a-strcmp.o)
 .debug_abbrev  0x0000350e      0x198 /opt/altera/13.0sp1/nios2eds/bin/gnu/H-i686-pc-linux-gnu/bin/../lib/gcc/nios2-elf/4.1.2/../../../../nios2-elf/lib/mno-hw-mul/libc.a(lib_a-wbuf.o)
 .debug_abbrev  0x000036a6      0x184 /opt/altera/13.0sp1/nios2eds/bin/gnu/H-i686-pc-linux-gnu/bin/../lib/gcc/nios2-elf/4.1.2/../../../../nios2-elf/lib/mno-hw-mul/libc.a(lib_a-writer.o)
 .debug_abbrev  0x0000382a      0x1b8 /opt/altera/13.0sp1/nios2eds/bin/gnu/H-i686-pc-linux-gnu/bin/../lib/gcc/nios2-elf/4.1.2/../../../../nios2-elf/lib/mno-hw-mul/libc.a(lib_a-callocr.o)
 .debug_abbrev  0x000039e2      0x17f /opt/altera/13.0sp1/nios2eds/bin/gnu/H-i686-pc-linux-gnu/bin/../lib/gcc/nios2-elf/4.1.2/../../../../nios2-elf/lib/mno-hw-mul/libc.a(lib_a-closer.o)
 .debug_abbrev  0x00003b61      0x1a7 /opt/altera/13.0sp1/nios2eds/bin/gnu/H-i686-pc-linux-gnu/bin/../lib/gcc/nios2-elf/4.1.2/../../../../nios2-elf/lib/mno-hw-mul/libc.a(lib_a-fclose.o)
 .debug_abbrev  0x00003d08      0x18e /opt/altera/13.0sp1/nios2eds/bin/gnu/H-i686-pc-linux-gnu/bin/../lib/gcc/nios2-elf/4.1.2/../../../../nios2-elf/lib/mno-hw-mul/libc.a(lib_a-fstatr.o)
 .debug_abbrev  0x00003e96       0x3b /opt/altera/13.0sp1/nios2eds/bin/gnu/H-i686-pc-linux-gnu/bin/../lib/gcc/nios2-elf/4.1.2/../../../../nios2-elf/lib/mno-hw-mul/libc.a(lib_a-int_errno.o)
 .debug_abbrev  0x00003ed1      0x17f /opt/altera/13.0sp1/nios2eds/bin/gnu/H-i686-pc-linux-gnu/bin/../lib/gcc/nios2-elf/4.1.2/../../../../nios2-elf/lib/mno-hw-mul/libc.a(lib_a-isattyr.o)
 .debug_abbrev  0x00004050      0x18e /opt/altera/13.0sp1/nios2eds/bin/gnu/H-i686-pc-linux-gnu/bin/../lib/gcc/nios2-elf/4.1.2/../../../../nios2-elf/lib/mno-hw-mul/libc.a(lib_a-lseekr.o)
 .debug_abbrev  0x000041de      0x17f /opt/altera/13.0sp1/nios2eds/bin/gnu/H-i686-pc-linux-gnu/bin/../lib/gcc/nios2-elf/4.1.2/../../../../nios2-elf/lib/mno-hw-mul/libc.a(lib_a-readr.o)
 .debug_abbrev  0x0000435d      0x16b /opt/altera/13.0sp1/nios2eds/bin/gnu/H-i686-pc-linux-gnu/bin/../lib/gcc/nios2-elf/4.1.2/mno-hw-mul/libgcc.a(_udivdi3.o)
 .debug_abbrev  0x000044c8      0x18e /opt/altera/13.0sp1/nios2eds/bin/gnu/H-i686-pc-linux-gnu/bin/../lib/gcc/nios2-elf/4.1.2/mno-hw-mul/libgcc.a(_umoddi3.o)
 .debug_abbrev  0x00004656      0x1d2 /opt/altera/13.0sp1/nios2eds/bin/gnu/H-i686-pc-linux-gnu/bin/../lib/gcc/nios2-elf/4.1.2/mno-hw-mul/libgcc.a(_addsub_df.o)
 .debug_abbrev  0x00004828      0x204 /opt/altera/13.0sp1/nios2eds/bin/gnu/H-i686-pc-linux-gnu/bin/../lib/gcc/nios2-elf/4.1.2/mno-hw-mul/libgcc.a(_mul_df.o)
 .debug_abbrev  0x00004a2c      0x151 /opt/altera/13.0sp1/nios2eds/bin/gnu/H-i686-pc-linux-gnu/bin/../lib/gcc/nios2-elf/4.1.2/mno-hw-mul/libgcc.a(_eq_df.o)
 .debug_abbrev  0x00004b7d      0x151 /opt/altera/13.0sp1/nios2eds/bin/gnu/H-i686-pc-linux-gnu/bin/../lib/gcc/nios2-elf/4.1.2/mno-hw-mul/libgcc.a(_ne_df.o)
 .debug_abbrev  0x00004cce      0x151 /opt/altera/13.0sp1/nios2eds/bin/gnu/H-i686-pc-linux-gnu/bin/../lib/gcc/nios2-elf/4.1.2/mno-hw-mul/libgcc.a(_gt_df.o)
 .debug_abbrev  0x00004e1f      0x151 /opt/altera/13.0sp1/nios2eds/bin/gnu/H-i686-pc-linux-gnu/bin/../lib/gcc/nios2-elf/4.1.2/mno-hw-mul/libgcc.a(_ge_df.o)
 .debug_abbrev  0x00004f70      0x151 /opt/altera/13.0sp1/nios2eds/bin/gnu/H-i686-pc-linux-gnu/bin/../lib/gcc/nios2-elf/4.1.2/mno-hw-mul/libgcc.a(_lt_df.o)
 .debug_abbrev  0x000050c1      0x13f /opt/altera/13.0sp1/nios2eds/bin/gnu/H-i686-pc-linux-gnu/bin/../lib/gcc/nios2-elf/4.1.2/mno-hw-mul/libgcc.a(_si_to_df.o)
 .debug_abbrev  0x00005200      0x176 /opt/altera/13.0sp1/nios2eds/bin/gnu/H-i686-pc-linux-gnu/bin/../lib/gcc/nios2-elf/4.1.2/mno-hw-mul/libgcc.a(_df_to_si.o)
 .debug_abbrev  0x00005376       0xfb /opt/altera/13.0sp1/nios2eds/bin/gnu/H-i686-pc-linux-gnu/bin/../lib/gcc/nios2-elf/4.1.2/mno-hw-mul/libgcc.a(_muldi3.o)
 .debug_abbrev  0x00005471      0x132 /opt/altera/13.0sp1/nios2eds/bin/gnu/H-i686-pc-linux-gnu/bin/../lib/gcc/nios2-elf/4.1.2/mno-hw-mul/libgcc.a(_fpcmp_parts_df.o)
 .debug_abbrev  0x000055a3      0x120 ../../bsp/single-rtos_bsp//libucosii_bsp.a(alt_close.o)
 .debug_abbrev  0x000056c3      0x119 ../../bsp/single-rtos_bsp//libucosii_bsp.a(alt_dev.o)
 .debug_abbrev  0x000057dc       0x5e ../../bsp/single-rtos_bsp//libucosii_bsp.a(alt_errno.o)
 .debug_abbrev  0x0000583a      0x12b ../../bsp/single-rtos_bsp//libucosii_bsp.a(alt_fstat.o)
 .debug_abbrev  0x00005965      0x12b ../../bsp/single-rtos_bsp//libucosii_bsp.a(alt_isatty.o)
 .debug_abbrev  0x00005a90       0x97 ../../bsp/single-rtos_bsp//libucosii_bsp.a(alt_load.o)
 .debug_abbrev  0x00005b27      0x12b ../../bsp/single-rtos_bsp//libucosii_bsp.a(alt_lseek.o)
 .debug_abbrev  0x00005c52      0x132 ../../bsp/single-rtos_bsp//libucosii_bsp.a(alt_main.o)
 .debug_abbrev  0x00005d84      0x12f ../../bsp/single-rtos_bsp//libucosii_bsp.a(alt_read.o)
 .debug_abbrev  0x00005eb3       0xe2 ../../bsp/single-rtos_bsp//libucosii_bsp.a(alt_release_fd.o)
 .debug_abbrev  0x00005f95      0x112 ../../bsp/single-rtos_bsp//libucosii_bsp.a(alt_sbrk.o)
 .debug_abbrev  0x000060a7      0x134 ../../bsp/single-rtos_bsp//libucosii_bsp.a(alt_write.o)
 .debug_abbrev  0x000061db      0x1ca ../../bsp/single-rtos_bsp//libucosii_bsp.a(alt_env_lock.o)
 .debug_abbrev  0x000063a5      0x25f ../../bsp/single-rtos_bsp//libucosii_bsp.a(alt_malloc_lock.o)
 .debug_abbrev  0x00006604      0x379 ../../bsp/single-rtos_bsp//libucosii_bsp.a(os_core.o)
 .debug_abbrev  0x0000697d      0x102 ../../bsp/single-rtos_bsp//libucosii_bsp.a(os_dbg.o)
 .debug_abbrev  0x00006a7f      0x297 ../../bsp/single-rtos_bsp//libucosii_bsp.a(os_flag.o)
 .debug_abbrev  0x00006d16      0x25a ../../bsp/single-rtos_bsp//libucosii_bsp.a(os_mem.o)
 .debug_abbrev  0x00006f70      0x2b0 ../../bsp/single-rtos_bsp//libucosii_bsp.a(os_q.o)
 .debug_abbrev  0x00007220      0x2b6 ../../bsp/single-rtos_bsp//libucosii_bsp.a(os_sem.o)
 .debug_abbrev  0x000074d6      0x284 ../../bsp/single-rtos_bsp//libucosii_bsp.a(os_task.o)
 .debug_abbrev  0x0000775a      0x209 ../../bsp/single-rtos_bsp//libucosii_bsp.a(os_time.o)
 .debug_abbrev  0x00007963      0x26b ../../bsp/single-rtos_bsp//libucosii_bsp.a(os_tmr.o)
 .debug_abbrev  0x00007bce      0x226 ../../bsp/single-rtos_bsp//libucosii_bsp.a(alt_sys_init.o)
 .debug_abbrev  0x00007df4      0x158 ../../bsp/single-rtos_bsp//libucosii_bsp.a(altera_avalon_jtag_uart_fd.o)
 .debug_abbrev  0x00007f4c      0x244 ../../bsp/single-rtos_bsp//libucosii_bsp.a(altera_avalon_jtag_uart_init.o)
 .debug_abbrev  0x00008190      0x151 ../../bsp/single-rtos_bsp//libucosii_bsp.a(altera_avalon_jtag_uart_ioctl.o)
 .debug_abbrev  0x000082e1      0x201 ../../bsp/single-rtos_bsp//libucosii_bsp.a(altera_avalon_jtag_uart_read.o)
 .debug_abbrev  0x000084e2      0x1ee ../../bsp/single-rtos_bsp//libucosii_bsp.a(altera_avalon_jtag_uart_write.o)
 .debug_abbrev  0x000086d0      0x237 ../../bsp/single-rtos_bsp//libucosii_bsp.a(altera_avalon_mutex.o)
 .debug_abbrev  0x00008907      0x158 ../../bsp/single-rtos_bsp//libucosii_bsp.a(altera_avalon_timer_sc.o)
 .debug_abbrev  0x00008a5f      0x179 ../../bsp/single-rtos_bsp//libucosii_bsp.a(alt_alarm_start.o)
 .debug_abbrev  0x00008bd8       0x3f ../../bsp/single-rtos_bsp//libucosii_bsp.a(alt_dcache_flush_all.o)
 .debug_abbrev  0x00008c17      0x117 ../../bsp/single-rtos_bsp//libucosii_bsp.a(alt_dev_llist_insert.o)
 .debug_abbrev  0x00008d2e       0x76 ../../bsp/single-rtos_bsp//libucosii_bsp.a(alt_do_ctors.o)
 .debug_abbrev  0x00008da4       0x76 ../../bsp/single-rtos_bsp//libucosii_bsp.a(alt_do_dtors.o)
 .debug_abbrev  0x00008e1a       0xf4 ../../bsp/single-rtos_bsp//libucosii_bsp.a(alt_find_dev.o)
 .debug_abbrev  0x00008f0e       0x3f ../../bsp/single-rtos_bsp//libucosii_bsp.a(alt_icache_flush_all.o)
 .debug_abbrev  0x00008f4d      0x115 ../../bsp/single-rtos_bsp//libucosii_bsp.a(alt_io_redirect.o)
 .debug_abbrev  0x00009062      0x190 ../../bsp/single-rtos_bsp//libucosii_bsp.a(alt_irq_register.o)
 .debug_abbrev  0x000091f2       0x44 ../../bsp/single-rtos_bsp//libucosii_bsp.a(alt_irq_vars.o)
 .debug_abbrev  0x00009236      0x17e ../../bsp/single-rtos_bsp//libucosii_bsp.a(alt_open.o)
 .debug_abbrev  0x000093b4      0x170 ../../bsp/single-rtos_bsp//libucosii_bsp.a(alt_tick.o)
 .debug_abbrev  0x00009524       0x64 ../../bsp/single-rtos_bsp//libucosii_bsp.a(altera_nios2_qsys_irq.o)
 .debug_abbrev  0x00009588       0x14 ../../bsp/single-rtos_bsp//libucosii_bsp.a(os_cpu_a.o)
 .debug_abbrev  0x0000959c      0x21f ../../bsp/single-rtos_bsp//libucosii_bsp.a(os_cpu_c.o)
 .debug_abbrev  0x000097bb       0xf4 ../../bsp/single-rtos_bsp//libucosii_bsp.a(alt_find_file.o)
 .debug_abbrev  0x000098af      0x192 ../../bsp/single-rtos_bsp//libucosii_bsp.a(alt_get_fd.o)
 .debug_abbrev  0x00009a41       0x12 ../../bsp/single-rtos_bsp//libucosii_bsp.a(alt_irq_entry.o)
 .debug_abbrev  0x00009a53      0x131 ../../bsp/single-rtos_bsp//libucosii_bsp.a(alt_irq_handler.o)
 .debug_abbrev  0x00009b84       0x12 ../../bsp/single-rtos_bsp//libucosii_bsp.a(alt_exception_entry.o)
 .debug_abbrev  0x00009b96       0xb7 /opt/altera/13.0sp1/nios2eds/bin/gnu/H-i686-pc-linux-gnu/bin/../lib/gcc/nios2-elf/4.1.2/../../../../nios2-elf/lib/mno-hw-mul/libc.a(lib_a-atexit.o)
 .debug_abbrev  0x00009c4d      0x16e /opt/altera/13.0sp1/nios2eds/bin/gnu/H-i686-pc-linux-gnu/bin/../lib/gcc/nios2-elf/4.1.2/../../../../nios2-elf/lib/mno-hw-mul/libc.a(lib_a-exit.o)
 .debug_abbrev  0x00009dbb       0x7c /opt/altera/13.0sp1/nios2eds/bin/gnu/H-i686-pc-linux-gnu/bin/../lib/gcc/nios2-elf/4.1.2/../../../../nios2-elf/lib/mno-hw-mul/libc.a(lib_a-memcmp.o)
 .debug_abbrev  0x00009e37      0x1ae /opt/altera/13.0sp1/nios2eds/bin/gnu/H-i686-pc-linux-gnu/bin/../lib/gcc/nios2-elf/4.1.2/../../../../nios2-elf/lib/mno-hw-mul/libc.a(lib_a-__atexit.o)
 .debug_abbrev  0x00009fe5      0x1de /opt/altera/13.0sp1/nios2eds/bin/gnu/H-i686-pc-linux-gnu/bin/../lib/gcc/nios2-elf/4.1.2/../../../../nios2-elf/lib/mno-hw-mul/libc.a(lib_a-__call_atexit.o)
 .debug_abbrev  0x0000a1c3       0x5d /opt/altera/13.0sp1/nios2eds/bin/gnu/H-i686-pc-linux-gnu/bin/../lib/gcc/nios2-elf/4.1.2/mno-hw-mul/libgcc.a(_fixunsdfsi.o)
 .debug_abbrev  0x0000a220       0xd7 ../../bsp/single-rtos_bsp//libucosii_bsp.a(alt_exit.o)

.debug_line     0x00000000    0x1cdd0
 *(.debug_line)
 .debug_line    0x00000000       0x66 ../../bsp/single-rtos_bsp//obj/HAL/src/crt0.o
 .debug_line    0x00000066      0xa5b obj/default/src_0/cpu_0.o
 .debug_line    0x00000ac1      0x301 /opt/altera/13.0sp1/nios2eds/bin/gnu/H-i686-pc-linux-gnu/bin/../lib/gcc/nios2-elf/4.1.2/mno-hw-mul/libgcc.a(_div_df.o)
 .debug_line    0x00000dc2       0x94 /opt/altera/13.0sp1/nios2eds/bin/gnu/H-i686-pc-linux-gnu/bin/../lib/gcc/nios2-elf/4.1.2/mno-hw-mul/libgcc.a(_thenan_df.o)
 .debug_line    0x00000e56      0x189 /opt/altera/13.0sp1/nios2eds/bin/gnu/H-i686-pc-linux-gnu/bin/../lib/gcc/nios2-elf/4.1.2/mno-hw-mul/libgcc.a(_usi_to_df.o)
 .debug_line    0x00000fdf      0x2c6 /opt/altera/13.0sp1/nios2eds/bin/gnu/H-i686-pc-linux-gnu/bin/../lib/gcc/nios2-elf/4.1.2/mno-hw-mul/libgcc.a(lib2-divmod.o)
 .debug_line    0x000012a5      0x191 /opt/altera/13.0sp1/nios2eds/bin/gnu/H-i686-pc-linux-gnu/bin/../lib/gcc/nios2-elf/4.1.2/mno-hw-mul/libgcc.a(lib2-mul.o)
 .debug_line    0x00001436      0x17c /opt/altera/13.0sp1/nios2eds/bin/gnu/H-i686-pc-linux-gnu/bin/../lib/gcc/nios2-elf/4.1.2/mno-hw-mul/libgcc.a(_clzsi2.o)
 .debug_line    0x000015b2      0x222 /opt/altera/13.0sp1/nios2eds/bin/gnu/H-i686-pc-linux-gnu/bin/../lib/gcc/nios2-elf/4.1.2/mno-hw-mul/libgcc.a(_pack_df.o)
 .debug_line    0x000017d4      0x1e4 /opt/altera/13.0sp1/nios2eds/bin/gnu/H-i686-pc-linux-gnu/bin/../lib/gcc/nios2-elf/4.1.2/mno-hw-mul/libgcc.a(_unpack_df.o)
 .debug_line    0x000019b8      0x121 /opt/altera/13.0sp1/nios2eds/bin/gnu/H-i686-pc-linux-gnu/bin/../lib/gcc/nios2-elf/4.1.2/mno-hw-mul/libgcc.a(_clz.o)
 .debug_line    0x00001ad9      0x29e /opt/altera/13.0sp1/nios2eds/bin/gnu/H-i686-pc-linux-gnu/bin/../lib/gcc/nios2-elf/4.1.2/../../../../nios2-elf/lib/mno-hw-mul/libc.a(lib_a-printf.o)
 .debug_line    0x00001d77      0x267 /opt/altera/13.0sp1/nios2eds/bin/gnu/H-i686-pc-linux-gnu/bin/../lib/gcc/nios2-elf/4.1.2/../../../../nios2-elf/lib/mno-hw-mul/libc.a(lib_a-putchar.o)
 .debug_line    0x00001fde      0x2fa /opt/altera/13.0sp1/nios2eds/bin/gnu/H-i686-pc-linux-gnu/bin/../lib/gcc/nios2-elf/4.1.2/../../../../nios2-elf/lib/mno-hw-mul/libc.a(lib_a-puts.o)
 .debug_line    0x000022d8      0x270 /opt/altera/13.0sp1/nios2eds/bin/gnu/H-i686-pc-linux-gnu/bin/../lib/gcc/nios2-elf/4.1.2/../../../../nios2-elf/lib/mno-hw-mul/libc.a(lib_a-strlen.o)
 .debug_line    0x00002548     0x110f /opt/altera/13.0sp1/nios2eds/bin/gnu/H-i686-pc-linux-gnu/bin/../lib/gcc/nios2-elf/4.1.2/../../../../nios2-elf/lib/mno-hw-mul/libc.a(lib_a-vfprintf.o)
 .debug_line    0x00003657      0x2f3 /opt/altera/13.0sp1/nios2eds/bin/gnu/H-i686-pc-linux-gnu/bin/../lib/gcc/nios2-elf/4.1.2/../../../../nios2-elf/lib/mno-hw-mul/libc.a(lib_a-wsetup.o)
 .debug_line    0x0000394a     0x1309 /opt/altera/13.0sp1/nios2eds/bin/gnu/H-i686-pc-linux-gnu/bin/../lib/gcc/nios2-elf/4.1.2/../../../../nios2-elf/lib/mno-hw-mul/libc.a(lib_a-dtoa.o)
 .debug_line    0x00004c53      0x410 /opt/altera/13.0sp1/nios2eds/bin/gnu/H-i686-pc-linux-gnu/bin/../lib/gcc/nios2-elf/4.1.2/../../../../nios2-elf/lib/mno-hw-mul/libc.a(lib_a-fflush.o)
 .debug_line    0x00005063      0x60c /opt/altera/13.0sp1/nios2eds/bin/gnu/H-i686-pc-linux-gnu/bin/../lib/gcc/nios2-elf/4.1.2/../../../../nios2-elf/lib/mno-hw-mul/libc.a(lib_a-findfp.o)
 .debug_line    0x0000566f      0x5ee /opt/altera/13.0sp1/nios2eds/bin/gnu/H-i686-pc-linux-gnu/bin/../lib/gcc/nios2-elf/4.1.2/../../../../nios2-elf/lib/mno-hw-mul/libc.a(lib_a-freer.o)
 .debug_line    0x00005c5d      0x644 /opt/altera/13.0sp1/nios2eds/bin/gnu/H-i686-pc-linux-gnu/bin/../lib/gcc/nios2-elf/4.1.2/../../../../nios2-elf/lib/mno-hw-mul/libc.a(lib_a-fvwrite.o)
 .debug_line    0x000062a1      0x34d /opt/altera/13.0sp1/nios2eds/bin/gnu/H-i686-pc-linux-gnu/bin/../lib/gcc/nios2-elf/4.1.2/../../../../nios2-elf/lib/mno-hw-mul/libc.a(lib_a-fwalk.o)
 .debug_line    0x000065ee      0x230 /opt/altera/13.0sp1/nios2eds/bin/gnu/H-i686-pc-linux-gnu/bin/../lib/gcc/nios2-elf/4.1.2/../../../../nios2-elf/lib/mno-hw-mul/libc.a(lib_a-impure.o)
 .debug_line    0x0000681e      0x2cb /opt/altera/13.0sp1/nios2eds/bin/gnu/H-i686-pc-linux-gnu/bin/../lib/gcc/nios2-elf/4.1.2/../../../../nios2-elf/lib/mno-hw-mul/libc.a(lib_a-locale.o)
 .debug_line    0x00006ae9      0x3c6 /opt/altera/13.0sp1/nios2eds/bin/gnu/H-i686-pc-linux-gnu/bin/../lib/gcc/nios2-elf/4.1.2/../../../../nios2-elf/lib/mno-hw-mul/libc.a(lib_a-makebuf.o)
 .debug_line    0x00006eaf      0x80d /opt/altera/13.0sp1/nios2eds/bin/gnu/H-i686-pc-linux-gnu/bin/../lib/gcc/nios2-elf/4.1.2/../../../../nios2-elf/lib/mno-hw-mul/libc.a(lib_a-mallocr.o)
 .debug_line    0x000076bc      0x306 /opt/altera/13.0sp1/nios2eds/bin/gnu/H-i686-pc-linux-gnu/bin/../lib/gcc/nios2-elf/4.1.2/../../../../nios2-elf/lib/mno-hw-mul/libc.a(lib_a-memchr.o)
 .debug_line    0x000079c2      0x1af /opt/altera/13.0sp1/nios2eds/bin/gnu/H-i686-pc-linux-gnu/bin/../lib/gcc/nios2-elf/4.1.2/../../../../nios2-elf/lib/mno-hw-mul/libc.a(lib_a-memcpy.o)
 .debug_line    0x00007b71      0x30d /opt/altera/13.0sp1/nios2eds/bin/gnu/H-i686-pc-linux-gnu/bin/../lib/gcc/nios2-elf/4.1.2/../../../../nios2-elf/lib/mno-hw-mul/libc.a(lib_a-memmove.o)
 .debug_line    0x00007e7e      0x304 /opt/altera/13.0sp1/nios2eds/bin/gnu/H-i686-pc-linux-gnu/bin/../lib/gcc/nios2-elf/4.1.2/../../../../nios2-elf/lib/mno-hw-mul/libc.a(lib_a-memset.o)
 .debug_line    0x00008182     0x125e /opt/altera/13.0sp1/nios2eds/bin/gnu/H-i686-pc-linux-gnu/bin/../lib/gcc/nios2-elf/4.1.2/../../../../nios2-elf/lib/mno-hw-mul/libc.a(lib_a-mprec.o)
 .debug_line    0x000093e0      0x2c7 /opt/altera/13.0sp1/nios2eds/bin/gnu/H-i686-pc-linux-gnu/bin/../lib/gcc/nios2-elf/4.1.2/../../../../nios2-elf/lib/mno-hw-mul/libc.a(lib_a-putc.o)
 .debug_line    0x000096a7      0x58d /opt/altera/13.0sp1/nios2eds/bin/gnu/H-i686-pc-linux-gnu/bin/../lib/gcc/nios2-elf/4.1.2/../../../../nios2-elf/lib/mno-hw-mul/libc.a(lib_a-reallocr.o)
 .debug_line    0x00009c34      0x225 /opt/altera/13.0sp1/nios2eds/bin/gnu/H-i686-pc-linux-gnu/bin/../lib/gcc/nios2-elf/4.1.2/../../../../nios2-elf/lib/mno-hw-mul/libc.a(lib_a-s_isinfd.o)
 .debug_line    0x00009e59      0x21d /opt/altera/13.0sp1/nios2eds/bin/gnu/H-i686-pc-linux-gnu/bin/../lib/gcc/nios2-elf/4.1.2/../../../../nios2-elf/lib/mno-hw-mul/libc.a(lib_a-s_isnand.o)
 .debug_line    0x0000a076      0x29c /opt/altera/13.0sp1/nios2eds/bin/gnu/H-i686-pc-linux-gnu/bin/../lib/gcc/nios2-elf/4.1.2/../../../../nios2-elf/lib/mno-hw-mul/libc.a(lib_a-sbrkr.o)
 .debug_line    0x0000a312      0x38f /opt/altera/13.0sp1/nios2eds/bin/gnu/H-i686-pc-linux-gnu/bin/../lib/gcc/nios2-elf/4.1.2/../../../../nios2-elf/lib/mno-hw-mul/libc.a(lib_a-stdio.o)
 .debug_line    0x0000a6a1      0x2d8 /opt/altera/13.0sp1/nios2eds/bin/gnu/H-i686-pc-linux-gnu/bin/../lib/gcc/nios2-elf/4.1.2/../../../../nios2-elf/lib/mno-hw-mul/libc.a(lib_a-strcmp.o)
 .debug_line    0x0000a979      0x353 /opt/altera/13.0sp1/nios2eds/bin/gnu/H-i686-pc-linux-gnu/bin/../lib/gcc/nios2-elf/4.1.2/../../../../nios2-elf/lib/mno-hw-mul/libc.a(lib_a-wbuf.o)
 .debug_line    0x0000accc      0x29d /opt/altera/13.0sp1/nios2eds/bin/gnu/H-i686-pc-linux-gnu/bin/../lib/gcc/nios2-elf/4.1.2/../../../../nios2-elf/lib/mno-hw-mul/libc.a(lib_a-writer.o)
 .debug_line    0x0000af69      0x25f /opt/altera/13.0sp1/nios2eds/bin/gnu/H-i686-pc-linux-gnu/bin/../lib/gcc/nios2-elf/4.1.2/../../../../nios2-elf/lib/mno-hw-mul/libc.a(lib_a-callocr.o)
 .debug_line    0x0000b1c8      0x29d /opt/altera/13.0sp1/nios2eds/bin/gnu/H-i686-pc-linux-gnu/bin/../lib/gcc/nios2-elf/4.1.2/../../../../nios2-elf/lib/mno-hw-mul/libc.a(lib_a-closer.o)
 .debug_line    0x0000b465      0x2eb /opt/altera/13.0sp1/nios2eds/bin/gnu/H-i686-pc-linux-gnu/bin/../lib/gcc/nios2-elf/4.1.2/../../../../nios2-elf/lib/mno-hw-mul/libc.a(lib_a-fclose.o)
 .debug_line    0x0000b750      0x267 /opt/altera/13.0sp1/nios2eds/bin/gnu/H-i686-pc-linux-gnu/bin/../lib/gcc/nios2-elf/4.1.2/../../../../nios2-elf/lib/mno-hw-mul/libc.a(lib_a-fstatr.o)
 .debug_line    0x0000b9b7      0x1e2 /opt/altera/13.0sp1/nios2eds/bin/gnu/H-i686-pc-linux-gnu/bin/../lib/gcc/nios2-elf/4.1.2/../../../../nios2-elf/lib/mno-hw-mul/libc.a(lib_a-int_errno.o)
 .debug_line    0x0000bb99      0x29e /opt/altera/13.0sp1/nios2eds/bin/gnu/H-i686-pc-linux-gnu/bin/../lib/gcc/nios2-elf/4.1.2/../../../../nios2-elf/lib/mno-hw-mul/libc.a(lib_a-isattyr.o)
 .debug_line    0x0000be37      0x29d /opt/altera/13.0sp1/nios2eds/bin/gnu/H-i686-pc-linux-gnu/bin/../lib/gcc/nios2-elf/4.1.2/../../../../nios2-elf/lib/mno-hw-mul/libc.a(lib_a-lseekr.o)
 .debug_line    0x0000c0d4      0x29c /opt/altera/13.0sp1/nios2eds/bin/gnu/H-i686-pc-linux-gnu/bin/../lib/gcc/nios2-elf/4.1.2/../../../../nios2-elf/lib/mno-hw-mul/libc.a(lib_a-readr.o)
 .debug_line    0x0000c370      0x369 /opt/altera/13.0sp1/nios2eds/bin/gnu/H-i686-pc-linux-gnu/bin/../lib/gcc/nios2-elf/4.1.2/mno-hw-mul/libgcc.a(_udivdi3.o)
 .debug_line    0x0000c6d9      0x47c /opt/altera/13.0sp1/nios2eds/bin/gnu/H-i686-pc-linux-gnu/bin/../lib/gcc/nios2-elf/4.1.2/mno-hw-mul/libgcc.a(_umoddi3.o)
 .debug_line    0x0000cb55      0x430 /opt/altera/13.0sp1/nios2eds/bin/gnu/H-i686-pc-linux-gnu/bin/../lib/gcc/nios2-elf/4.1.2/mno-hw-mul/libgcc.a(_addsub_df.o)
 .debug_line    0x0000cf85      0x3e5 /opt/altera/13.0sp1/nios2eds/bin/gnu/H-i686-pc-linux-gnu/bin/../lib/gcc/nios2-elf/4.1.2/mno-hw-mul/libgcc.a(_mul_df.o)
 .debug_line    0x0000d36a      0x129 /opt/altera/13.0sp1/nios2eds/bin/gnu/H-i686-pc-linux-gnu/bin/../lib/gcc/nios2-elf/4.1.2/mno-hw-mul/libgcc.a(_eq_df.o)
 .debug_line    0x0000d493      0x129 /opt/altera/13.0sp1/nios2eds/bin/gnu/H-i686-pc-linux-gnu/bin/../lib/gcc/nios2-elf/4.1.2/mno-hw-mul/libgcc.a(_ne_df.o)
 .debug_line    0x0000d5bc      0x129 /opt/altera/13.0sp1/nios2eds/bin/gnu/H-i686-pc-linux-gnu/bin/../lib/gcc/nios2-elf/4.1.2/mno-hw-mul/libgcc.a(_gt_df.o)
 .debug_line    0x0000d6e5      0x129 /opt/altera/13.0sp1/nios2eds/bin/gnu/H-i686-pc-linux-gnu/bin/../lib/gcc/nios2-elf/4.1.2/mno-hw-mul/libgcc.a(_ge_df.o)
 .debug_line    0x0000d80e      0x129 /opt/altera/13.0sp1/nios2eds/bin/gnu/H-i686-pc-linux-gnu/bin/../lib/gcc/nios2-elf/4.1.2/mno-hw-mul/libgcc.a(_lt_df.o)
 .debug_line    0x0000d937      0x175 /opt/altera/13.0sp1/nios2eds/bin/gnu/H-i686-pc-linux-gnu/bin/../lib/gcc/nios2-elf/4.1.2/mno-hw-mul/libgcc.a(_si_to_df.o)
 .debug_line    0x0000daac      0x149 /opt/altera/13.0sp1/nios2eds/bin/gnu/H-i686-pc-linux-gnu/bin/../lib/gcc/nios2-elf/4.1.2/mno-hw-mul/libgcc.a(_df_to_si.o)
 .debug_line    0x0000dbf5      0x1c6 /opt/altera/13.0sp1/nios2eds/bin/gnu/H-i686-pc-linux-gnu/bin/../lib/gcc/nios2-elf/4.1.2/mno-hw-mul/libgcc.a(_muldi3.o)
 .debug_line    0x0000ddbb      0x187 /opt/altera/13.0sp1/nios2eds/bin/gnu/H-i686-pc-linux-gnu/bin/../lib/gcc/nios2-elf/4.1.2/mno-hw-mul/libgcc.a(_fpcmp_parts_df.o)
 .debug_line    0x0000df42      0x33b ../../bsp/single-rtos_bsp//libucosii_bsp.a(alt_close.o)
 .debug_line    0x0000e27d      0x2d7 ../../bsp/single-rtos_bsp//libucosii_bsp.a(alt_dev.o)
 .debug_line    0x0000e554      0x1b8 ../../bsp/single-rtos_bsp//libucosii_bsp.a(alt_errno.o)
 .debug_line    0x0000e70c      0x331 ../../bsp/single-rtos_bsp//libucosii_bsp.a(alt_fstat.o)
 .debug_line    0x0000ea3d      0x328 ../../bsp/single-rtos_bsp//libucosii_bsp.a(alt_isatty.o)
 .debug_line    0x0000ed65      0x225 ../../bsp/single-rtos_bsp//libucosii_bsp.a(alt_load.o)
 .debug_line    0x0000ef8a      0x2f5 ../../bsp/single-rtos_bsp//libucosii_bsp.a(alt_lseek.o)
 .debug_line    0x0000f27f      0x399 ../../bsp/single-rtos_bsp//libucosii_bsp.a(alt_main.o)
 .debug_line    0x0000f618      0x37a ../../bsp/single-rtos_bsp//libucosii_bsp.a(alt_read.o)
 .debug_line    0x0000f992      0x2cb ../../bsp/single-rtos_bsp//libucosii_bsp.a(alt_release_fd.o)
 .debug_line    0x0000fc5d      0x271 ../../bsp/single-rtos_bsp//libucosii_bsp.a(alt_sbrk.o)
 .debug_line    0x0000fece      0x37b ../../bsp/single-rtos_bsp//libucosii_bsp.a(alt_write.o)
 .debug_line    0x00010249      0x338 ../../bsp/single-rtos_bsp//libucosii_bsp.a(alt_env_lock.o)
 .debug_line    0x00010581      0x3ac ../../bsp/single-rtos_bsp//libucosii_bsp.a(alt_malloc_lock.o)
 .debug_line    0x0001092d     0x1702 ../../bsp/single-rtos_bsp//libucosii_bsp.a(os_core.o)
 .debug_line    0x0001202f      0x23f ../../bsp/single-rtos_bsp//libucosii_bsp.a(os_dbg.o)
 .debug_line    0x0001226e      0xef6 ../../bsp/single-rtos_bsp//libucosii_bsp.a(os_flag.o)
 .debug_line    0x00013164      0x71c ../../bsp/single-rtos_bsp//libucosii_bsp.a(os_mem.o)
 .debug_line    0x00013880      0xcab ../../bsp/single-rtos_bsp//libucosii_bsp.a(os_q.o)
 .debug_line    0x0001452b      0x86a ../../bsp/single-rtos_bsp//libucosii_bsp.a(os_sem.o)
 .debug_line    0x00014d95      0xf86 ../../bsp/single-rtos_bsp//libucosii_bsp.a(os_task.o)
 .debug_line    0x00015d1b      0x4ed ../../bsp/single-rtos_bsp//libucosii_bsp.a(os_time.o)
 .debug_line    0x00016208      0xc39 ../../bsp/single-rtos_bsp//libucosii_bsp.a(os_tmr.o)
 .debug_line    0x00016e41      0x48f ../../bsp/single-rtos_bsp//libucosii_bsp.a(alt_sys_init.o)
 .debug_line    0x000172d0      0x344 ../../bsp/single-rtos_bsp//libucosii_bsp.a(altera_avalon_jtag_uart_fd.o)
 .debug_line    0x00017614      0x65e ../../bsp/single-rtos_bsp//libucosii_bsp.a(altera_avalon_jtag_uart_init.o)
 .debug_line    0x00017c72      0x35b ../../bsp/single-rtos_bsp//libucosii_bsp.a(altera_avalon_jtag_uart_ioctl.o)
 .debug_line    0x00017fcd      0x4e7 ../../bsp/single-rtos_bsp//libucosii_bsp.a(altera_avalon_jtag_uart_read.o)
 .debug_line    0x000184b4      0x4dc ../../bsp/single-rtos_bsp//libucosii_bsp.a(altera_avalon_jtag_uart_write.o)
 .debug_line    0x00018990      0x4c6 ../../bsp/single-rtos_bsp//libucosii_bsp.a(altera_avalon_mutex.o)
 .debug_line    0x00018e56      0x2de ../../bsp/single-rtos_bsp//libucosii_bsp.a(altera_avalon_timer_sc.o)
 .debug_line    0x00019134      0x2c9 ../../bsp/single-rtos_bsp//libucosii_bsp.a(alt_alarm_start.o)
 .debug_line    0x000193fd      0x1c3 ../../bsp/single-rtos_bsp//libucosii_bsp.a(alt_dcache_flush_all.o)
 .debug_line    0x000195c0      0x26a ../../bsp/single-rtos_bsp//libucosii_bsp.a(alt_dev_llist_insert.o)
 .debug_line    0x0001982a       0x8b ../../bsp/single-rtos_bsp//libucosii_bsp.a(alt_do_ctors.o)
 .debug_line    0x000198b5       0x8b ../../bsp/single-rtos_bsp//libucosii_bsp.a(alt_do_dtors.o)
 .debug_line    0x00019940      0x2f2 ../../bsp/single-rtos_bsp//libucosii_bsp.a(alt_find_dev.o)
 .debug_line    0x00019c32      0x1c3 ../../bsp/single-rtos_bsp//libucosii_bsp.a(alt_icache_flush_all.o)
 .debug_line    0x00019df5      0x3ad ../../bsp/single-rtos_bsp//libucosii_bsp.a(alt_io_redirect.o)
 .debug_line    0x0001a1a2      0x30a ../../bsp/single-rtos_bsp//libucosii_bsp.a(alt_irq_register.o)
 .debug_line    0x0001a4ac       0x72 ../../bsp/single-rtos_bsp//libucosii_bsp.a(alt_irq_vars.o)
 .debug_line    0x0001a51e      0x371 ../../bsp/single-rtos_bsp//libucosii_bsp.a(alt_open.o)
 .debug_line    0x0001a88f      0x353 ../../bsp/single-rtos_bsp//libucosii_bsp.a(alt_tick.o)
 .debug_line    0x0001abe2      0x1f5 ../../bsp/single-rtos_bsp//libucosii_bsp.a(altera_nios2_qsys_irq.o)
 .debug_line    0x0001add7       0x86 ../../bsp/single-rtos_bsp//libucosii_bsp.a(os_cpu_a.o)
 .debug_line    0x0001ae5d      0x3dc ../../bsp/single-rtos_bsp//libucosii_bsp.a(os_cpu_c.o)
 .debug_line    0x0001b239      0x31d ../../bsp/single-rtos_bsp//libucosii_bsp.a(alt_find_file.o)
 .debug_line    0x0001b556      0x351 ../../bsp/single-rtos_bsp//libucosii_bsp.a(alt_get_fd.o)
 .debug_line    0x0001b8a7       0x6b ../../bsp/single-rtos_bsp//libucosii_bsp.a(alt_irq_entry.o)
 .debug_line    0x0001b912      0x2ca ../../bsp/single-rtos_bsp//libucosii_bsp.a(alt_irq_handler.o)
 .debug_line    0x0001bbdc       0xab ../../bsp/single-rtos_bsp//libucosii_bsp.a(alt_exception_entry.o)
 .debug_line    0x0001bc87      0x203 /opt/altera/13.0sp1/nios2eds/bin/gnu/H-i686-pc-linux-gnu/bin/../lib/gcc/nios2-elf/4.1.2/../../../../nios2-elf/lib/mno-hw-mul/libc.a(lib_a-atexit.o)
 .debug_line    0x0001be8a      0x23b /opt/altera/13.0sp1/nios2eds/bin/gnu/H-i686-pc-linux-gnu/bin/../lib/gcc/nios2-elf/4.1.2/../../../../nios2-elf/lib/mno-hw-mul/libc.a(lib_a-exit.o)
 .debug_line    0x0001c0c5      0x2a2 /opt/altera/13.0sp1/nios2eds/bin/gnu/H-i686-pc-linux-gnu/bin/../lib/gcc/nios2-elf/4.1.2/../../../../nios2-elf/lib/mno-hw-mul/libc.a(lib_a-memcmp.o)
 .debug_line    0x0001c367      0x316 /opt/altera/13.0sp1/nios2eds/bin/gnu/H-i686-pc-linux-gnu/bin/../lib/gcc/nios2-elf/4.1.2/../../../../nios2-elf/lib/mno-hw-mul/libc.a(lib_a-__atexit.o)
 .debug_line    0x0001c67d      0x36a /opt/altera/13.0sp1/nios2eds/bin/gnu/H-i686-pc-linux-gnu/bin/../lib/gcc/nios2-elf/4.1.2/../../../../nios2-elf/lib/mno-hw-mul/libc.a(lib_a-__call_atexit.o)
 .debug_line    0x0001c9e7      0x176 /opt/altera/13.0sp1/nios2eds/bin/gnu/H-i686-pc-linux-gnu/bin/../lib/gcc/nios2-elf/4.1.2/mno-hw-mul/libgcc.a(_fixunsdfsi.o)
 .debug_line    0x0001cb5d      0x273 ../../bsp/single-rtos_bsp//libucosii_bsp.a(alt_exit.o)

.debug_frame    0x00000000     0x23ec
 *(.debug_frame)
 .debug_frame   0x00000000      0x1c4 obj/default/src_0/cpu_0.o
 .debug_frame   0x000001c4       0x30 /opt/altera/13.0sp1/nios2eds/bin/gnu/H-i686-pc-linux-gnu/bin/../lib/gcc/nios2-elf/4.1.2/mno-hw-mul/libgcc.a(_div_df.o)
 .debug_frame   0x000001f4       0x38 /opt/altera/13.0sp1/nios2eds/bin/gnu/H-i686-pc-linux-gnu/bin/../lib/gcc/nios2-elf/4.1.2/mno-hw-mul/libgcc.a(_usi_to_df.o)
 .debug_frame   0x0000022c       0x70 /opt/altera/13.0sp1/nios2eds/bin/gnu/H-i686-pc-linux-gnu/bin/../lib/gcc/nios2-elf/4.1.2/mno-hw-mul/libgcc.a(lib2-divmod.o)
 .debug_frame   0x0000029c       0x20 /opt/altera/13.0sp1/nios2eds/bin/gnu/H-i686-pc-linux-gnu/bin/../lib/gcc/nios2-elf/4.1.2/mno-hw-mul/libgcc.a(lib2-mul.o)
 .debug_frame   0x000002bc       0x20 /opt/altera/13.0sp1/nios2eds/bin/gnu/H-i686-pc-linux-gnu/bin/../lib/gcc/nios2-elf/4.1.2/mno-hw-mul/libgcc.a(_clzsi2.o)
 .debug_frame   0x000002dc       0x2c /opt/altera/13.0sp1/nios2eds/bin/gnu/H-i686-pc-linux-gnu/bin/../lib/gcc/nios2-elf/4.1.2/mno-hw-mul/libgcc.a(_pack_df.o)
 .debug_frame   0x00000308       0x20 /opt/altera/13.0sp1/nios2eds/bin/gnu/H-i686-pc-linux-gnu/bin/../lib/gcc/nios2-elf/4.1.2/mno-hw-mul/libgcc.a(_unpack_df.o)
 .debug_frame   0x00000328       0x40 /opt/altera/13.0sp1/nios2eds/bin/gnu/H-i686-pc-linux-gnu/bin/../lib/gcc/nios2-elf/4.1.2/../../../../nios2-elf/lib/mno-hw-mul/libc.a(lib_a-printf.o)
 .debug_frame   0x00000368       0x30 /opt/altera/13.0sp1/nios2eds/bin/gnu/H-i686-pc-linux-gnu/bin/../lib/gcc/nios2-elf/4.1.2/../../../../nios2-elf/lib/mno-hw-mul/libc.a(lib_a-putchar.o)
 .debug_frame   0x00000398       0x3c /opt/altera/13.0sp1/nios2eds/bin/gnu/H-i686-pc-linux-gnu/bin/../lib/gcc/nios2-elf/4.1.2/../../../../nios2-elf/lib/mno-hw-mul/libc.a(lib_a-puts.o)
 .debug_frame   0x000003d4       0x20 /opt/altera/13.0sp1/nios2eds/bin/gnu/H-i686-pc-linux-gnu/bin/../lib/gcc/nios2-elf/4.1.2/../../../../nios2-elf/lib/mno-hw-mul/libc.a(lib_a-strlen.o)
 .debug_frame   0x000003f4       0x64 /opt/altera/13.0sp1/nios2eds/bin/gnu/H-i686-pc-linux-gnu/bin/../lib/gcc/nios2-elf/4.1.2/../../../../nios2-elf/lib/mno-hw-mul/libc.a(lib_a-vfprintf.o)
 .debug_frame   0x00000458       0x2c /opt/altera/13.0sp1/nios2eds/bin/gnu/H-i686-pc-linux-gnu/bin/../lib/gcc/nios2-elf/4.1.2/../../../../nios2-elf/lib/mno-hw-mul/libc.a(lib_a-wsetup.o)
 .debug_frame   0x00000484       0x64 /opt/altera/13.0sp1/nios2eds/bin/gnu/H-i686-pc-linux-gnu/bin/../lib/gcc/nios2-elf/4.1.2/../../../../nios2-elf/lib/mno-hw-mul/libc.a(lib_a-dtoa.o)
 .debug_frame   0x000004e8       0x40 /opt/altera/13.0sp1/nios2eds/bin/gnu/H-i686-pc-linux-gnu/bin/../lib/gcc/nios2-elf/4.1.2/../../../../nios2-elf/lib/mno-hw-mul/libc.a(lib_a-fflush.o)
 .debug_frame   0x00000528      0x118 /opt/altera/13.0sp1/nios2eds/bin/gnu/H-i686-pc-linux-gnu/bin/../lib/gcc/nios2-elf/4.1.2/../../../../nios2-elf/lib/mno-hw-mul/libc.a(lib_a-findfp.o)
 .debug_frame   0x00000640       0x4c /opt/altera/13.0sp1/nios2eds/bin/gnu/H-i686-pc-linux-gnu/bin/../lib/gcc/nios2-elf/4.1.2/../../../../nios2-elf/lib/mno-hw-mul/libc.a(lib_a-freer.o)
 .debug_frame   0x0000068c       0x38 /opt/altera/13.0sp1/nios2eds/bin/gnu/H-i686-pc-linux-gnu/bin/../lib/gcc/nios2-elf/4.1.2/../../../../nios2-elf/lib/mno-hw-mul/libc.a(lib_a-fvwrite.o)
 .debug_frame   0x000006c4       0x60 /opt/altera/13.0sp1/nios2eds/bin/gnu/H-i686-pc-linux-gnu/bin/../lib/gcc/nios2-elf/4.1.2/../../../../nios2-elf/lib/mno-hw-mul/libc.a(lib_a-fwalk.o)
 .debug_frame   0x00000724       0x70 /opt/altera/13.0sp1/nios2eds/bin/gnu/H-i686-pc-linux-gnu/bin/../lib/gcc/nios2-elf/4.1.2/../../../../nios2-elf/lib/mno-hw-mul/libc.a(lib_a-locale.o)
 .debug_frame   0x00000794       0x2c /opt/altera/13.0sp1/nios2eds/bin/gnu/H-i686-pc-linux-gnu/bin/../lib/gcc/nios2-elf/4.1.2/../../../../nios2-elf/lib/mno-hw-mul/libc.a(lib_a-makebuf.o)
 .debug_frame   0x000007c0       0x38 /opt/altera/13.0sp1/nios2eds/bin/gnu/H-i686-pc-linux-gnu/bin/../lib/gcc/nios2-elf/4.1.2/../../../../nios2-elf/lib/mno-hw-mul/libc.a(lib_a-mallocr.o)
 .debug_frame   0x000007f8       0x20 /opt/altera/13.0sp1/nios2eds/bin/gnu/H-i686-pc-linux-gnu/bin/../lib/gcc/nios2-elf/4.1.2/../../../../nios2-elf/lib/mno-hw-mul/libc.a(lib_a-memchr.o)
 .debug_frame   0x00000818       0x20 /opt/altera/13.0sp1/nios2eds/bin/gnu/H-i686-pc-linux-gnu/bin/../lib/gcc/nios2-elf/4.1.2/../../../../nios2-elf/lib/mno-hw-mul/libc.a(lib_a-memcpy.o)
 .debug_frame   0x00000838       0x20 /opt/altera/13.0sp1/nios2eds/bin/gnu/H-i686-pc-linux-gnu/bin/../lib/gcc/nios2-elf/4.1.2/../../../../nios2-elf/lib/mno-hw-mul/libc.a(lib_a-memmove.o)
 .debug_frame   0x00000858       0x20 /opt/altera/13.0sp1/nios2eds/bin/gnu/H-i686-pc-linux-gnu/bin/../lib/gcc/nios2-elf/4.1.2/../../../../nios2-elf/lib/mno-hw-mul/libc.a(lib_a-memset.o)
 .debug_frame   0x00000878      0x228 /opt/altera/13.0sp1/nios2eds/bin/gnu/H-i686-pc-linux-gnu/bin/../lib/gcc/nios2-elf/4.1.2/../../../../nios2-elf/lib/mno-hw-mul/libc.a(lib_a-mprec.o)
 .debug_frame   0x00000aa0       0x4c /opt/altera/13.0sp1/nios2eds/bin/gnu/H-i686-pc-linux-gnu/bin/../lib/gcc/nios2-elf/4.1.2/../../../../nios2-elf/lib/mno-hw-mul/libc.a(lib_a-putc.o)
 .debug_frame   0x00000aec       0x38 /opt/altera/13.0sp1/nios2eds/bin/gnu/H-i686-pc-linux-gnu/bin/../lib/gcc/nios2-elf/4.1.2/../../../../nios2-elf/lib/mno-hw-mul/libc.a(lib_a-reallocr.o)
 .debug_frame   0x00000b24       0x20 /opt/altera/13.0sp1/nios2eds/bin/gnu/H-i686-pc-linux-gnu/bin/../lib/gcc/nios2-elf/4.1.2/../../../../nios2-elf/lib/mno-hw-mul/libc.a(lib_a-s_isinfd.o)
 .debug_frame   0x00000b44       0x20 /opt/altera/13.0sp1/nios2eds/bin/gnu/H-i686-pc-linux-gnu/bin/../lib/gcc/nios2-elf/4.1.2/../../../../nios2-elf/lib/mno-hw-mul/libc.a(lib_a-s_isnand.o)
 .debug_frame   0x00000b64       0x2c /opt/altera/13.0sp1/nios2eds/bin/gnu/H-i686-pc-linux-gnu/bin/../lib/gcc/nios2-elf/4.1.2/../../../../nios2-elf/lib/mno-hw-mul/libc.a(lib_a-sbrkr.o)
 .debug_frame   0x00000b90       0x78 /opt/altera/13.0sp1/nios2eds/bin/gnu/H-i686-pc-linux-gnu/bin/../lib/gcc/nios2-elf/4.1.2/../../../../nios2-elf/lib/mno-hw-mul/libc.a(lib_a-stdio.o)
 .debug_frame   0x00000c08       0x20 /opt/altera/13.0sp1/nios2eds/bin/gnu/H-i686-pc-linux-gnu/bin/../lib/gcc/nios2-elf/4.1.2/../../../../nios2-elf/lib/mno-hw-mul/libc.a(lib_a-strcmp.o)
 .debug_frame   0x00000c28       0x3c /opt/altera/13.0sp1/nios2eds/bin/gnu/H-i686-pc-linux-gnu/bin/../lib/gcc/nios2-elf/4.1.2/../../../../nios2-elf/lib/mno-hw-mul/libc.a(lib_a-wbuf.o)
 .debug_frame   0x00000c64       0x2c /opt/altera/13.0sp1/nios2eds/bin/gnu/H-i686-pc-linux-gnu/bin/../lib/gcc/nios2-elf/4.1.2/../../../../nios2-elf/lib/mno-hw-mul/libc.a(lib_a-writer.o)
 .debug_frame   0x00000c90       0x2c /opt/altera/13.0sp1/nios2eds/bin/gnu/H-i686-pc-linux-gnu/bin/../lib/gcc/nios2-elf/4.1.2/../../../../nios2-elf/lib/mno-hw-mul/libc.a(lib_a-callocr.o)
 .debug_frame   0x00000cbc       0x2c /opt/altera/13.0sp1/nios2eds/bin/gnu/H-i686-pc-linux-gnu/bin/../lib/gcc/nios2-elf/4.1.2/../../../../nios2-elf/lib/mno-hw-mul/libc.a(lib_a-closer.o)
 .debug_frame   0x00000ce8       0x3c /opt/altera/13.0sp1/nios2eds/bin/gnu/H-i686-pc-linux-gnu/bin/../lib/gcc/nios2-elf/4.1.2/../../../../nios2-elf/lib/mno-hw-mul/libc.a(lib_a-fclose.o)
 .debug_frame   0x00000d24       0x2c /opt/altera/13.0sp1/nios2eds/bin/gnu/H-i686-pc-linux-gnu/bin/../lib/gcc/nios2-elf/4.1.2/../../../../nios2-elf/lib/mno-hw-mul/libc.a(lib_a-fstatr.o)
 .debug_frame   0x00000d50       0x2c /opt/altera/13.0sp1/nios2eds/bin/gnu/H-i686-pc-linux-gnu/bin/../lib/gcc/nios2-elf/4.1.2/../../../../nios2-elf/lib/mno-hw-mul/libc.a(lib_a-isattyr.o)
 .debug_frame   0x00000d7c       0x2c /opt/altera/13.0sp1/nios2eds/bin/gnu/H-i686-pc-linux-gnu/bin/../lib/gcc/nios2-elf/4.1.2/../../../../nios2-elf/lib/mno-hw-mul/libc.a(lib_a-lseekr.o)
 .debug_frame   0x00000da8       0x2c /opt/altera/13.0sp1/nios2eds/bin/gnu/H-i686-pc-linux-gnu/bin/../lib/gcc/nios2-elf/4.1.2/../../../../nios2-elf/lib/mno-hw-mul/libc.a(lib_a-readr.o)
 .debug_frame   0x00000dd4       0x38 /opt/altera/13.0sp1/nios2eds/bin/gnu/H-i686-pc-linux-gnu/bin/../lib/gcc/nios2-elf/4.1.2/mno-hw-mul/libgcc.a(_udivdi3.o)
 .debug_frame   0x00000e0c       0x38 /opt/altera/13.0sp1/nios2eds/bin/gnu/H-i686-pc-linux-gnu/bin/../lib/gcc/nios2-elf/4.1.2/mno-hw-mul/libgcc.a(_umoddi3.o)
 .debug_frame   0x00000e44       0x70 /opt/altera/13.0sp1/nios2eds/bin/gnu/H-i686-pc-linux-gnu/bin/../lib/gcc/nios2-elf/4.1.2/mno-hw-mul/libgcc.a(_addsub_df.o)
 .debug_frame   0x00000eb4       0x3c /opt/altera/13.0sp1/nios2eds/bin/gnu/H-i686-pc-linux-gnu/bin/../lib/gcc/nios2-elf/4.1.2/mno-hw-mul/libgcc.a(_mul_df.o)
 .debug_frame   0x00000ef0       0x2c /opt/altera/13.0sp1/nios2eds/bin/gnu/H-i686-pc-linux-gnu/bin/../lib/gcc/nios2-elf/4.1.2/mno-hw-mul/libgcc.a(_eq_df.o)
 .debug_frame   0x00000f1c       0x2c /opt/altera/13.0sp1/nios2eds/bin/gnu/H-i686-pc-linux-gnu/bin/../lib/gcc/nios2-elf/4.1.2/mno-hw-mul/libgcc.a(_ne_df.o)
 .debug_frame   0x00000f48       0x2c /opt/altera/13.0sp1/nios2eds/bin/gnu/H-i686-pc-linux-gnu/bin/../lib/gcc/nios2-elf/4.1.2/mno-hw-mul/libgcc.a(_gt_df.o)
 .debug_frame   0x00000f74       0x2c /opt/altera/13.0sp1/nios2eds/bin/gnu/H-i686-pc-linux-gnu/bin/../lib/gcc/nios2-elf/4.1.2/mno-hw-mul/libgcc.a(_ge_df.o)
 .debug_frame   0x00000fa0       0x2c /opt/altera/13.0sp1/nios2eds/bin/gnu/H-i686-pc-linux-gnu/bin/../lib/gcc/nios2-elf/4.1.2/mno-hw-mul/libgcc.a(_lt_df.o)
 .debug_frame   0x00000fcc       0x30 /opt/altera/13.0sp1/nios2eds/bin/gnu/H-i686-pc-linux-gnu/bin/../lib/gcc/nios2-elf/4.1.2/mno-hw-mul/libgcc.a(_si_to_df.o)
 .debug_frame   0x00000ffc       0x28 /opt/altera/13.0sp1/nios2eds/bin/gnu/H-i686-pc-linux-gnu/bin/../lib/gcc/nios2-elf/4.1.2/mno-hw-mul/libgcc.a(_df_to_si.o)
 .debug_frame   0x00001024       0x40 /opt/altera/13.0sp1/nios2eds/bin/gnu/H-i686-pc-linux-gnu/bin/../lib/gcc/nios2-elf/4.1.2/mno-hw-mul/libgcc.a(_muldi3.o)
 .debug_frame   0x00001064       0x20 /opt/altera/13.0sp1/nios2eds/bin/gnu/H-i686-pc-linux-gnu/bin/../lib/gcc/nios2-elf/4.1.2/mno-hw-mul/libgcc.a(_fpcmp_parts_df.o)
 .debug_frame   0x00001084       0x3c ../../bsp/single-rtos_bsp//libucosii_bsp.a(alt_close.o)
 .debug_frame   0x000010c0       0x20 ../../bsp/single-rtos_bsp//libucosii_bsp.a(alt_dev.o)
 .debug_frame   0x000010e0       0x28 ../../bsp/single-rtos_bsp//libucosii_bsp.a(alt_fstat.o)
 .debug_frame   0x00001108       0x28 ../../bsp/single-rtos_bsp//libucosii_bsp.a(alt_isatty.o)
 .debug_frame   0x00001130       0x38 ../../bsp/single-rtos_bsp//libucosii_bsp.a(alt_load.o)
 .debug_frame   0x00001168       0x2c ../../bsp/single-rtos_bsp//libucosii_bsp.a(alt_lseek.o)
 .debug_frame   0x00001194       0x2c ../../bsp/single-rtos_bsp//libucosii_bsp.a(alt_main.o)
 .debug_frame   0x000011c0       0x40 ../../bsp/single-rtos_bsp//libucosii_bsp.a(alt_read.o)
 .debug_frame   0x00001200       0x2c ../../bsp/single-rtos_bsp//libucosii_bsp.a(alt_release_fd.o)
 .debug_frame   0x0000122c       0x20 ../../bsp/single-rtos_bsp//libucosii_bsp.a(alt_sbrk.o)
 .debug_frame   0x0000124c       0x40 ../../bsp/single-rtos_bsp//libucosii_bsp.a(alt_write.o)
 .debug_frame   0x0000128c       0x38 ../../bsp/single-rtos_bsp//libucosii_bsp.a(alt_env_lock.o)
 .debug_frame   0x000012c4       0x3c ../../bsp/single-rtos_bsp//libucosii_bsp.a(alt_malloc_lock.o)
 .debug_frame   0x00001300      0x25c ../../bsp/single-rtos_bsp//libucosii_bsp.a(os_core.o)
 .debug_frame   0x0000155c       0x20 ../../bsp/single-rtos_bsp//libucosii_bsp.a(os_dbg.o)
 .debug_frame   0x0000157c      0x148 ../../bsp/single-rtos_bsp//libucosii_bsp.a(os_flag.o)
 .debug_frame   0x000016c4       0xa0 ../../bsp/single-rtos_bsp//libucosii_bsp.a(os_mem.o)
 .debug_frame   0x00001764      0x124 ../../bsp/single-rtos_bsp//libucosii_bsp.a(os_q.o)
 .debug_frame   0x00001888       0xd0 ../../bsp/single-rtos_bsp//libucosii_bsp.a(os_sem.o)
 .debug_frame   0x00001958      0x148 ../../bsp/single-rtos_bsp//libucosii_bsp.a(os_task.o)
 .debug_frame   0x00001aa0       0x78 ../../bsp/single-rtos_bsp//libucosii_bsp.a(os_time.o)
 .debug_frame   0x00001b18      0x184 ../../bsp/single-rtos_bsp//libucosii_bsp.a(os_tmr.o)
 .debug_frame   0x00001c9c       0x70 ../../bsp/single-rtos_bsp//libucosii_bsp.a(alt_sys_init.o)
 .debug_frame   0x00001d0c       0x50 ../../bsp/single-rtos_bsp//libucosii_bsp.a(altera_avalon_jtag_uart_fd.o)
 .debug_frame   0x00001d5c       0x7c ../../bsp/single-rtos_bsp//libucosii_bsp.a(altera_avalon_jtag_uart_init.o)
 .debug_frame   0x00001dd8       0x20 ../../bsp/single-rtos_bsp//libucosii_bsp.a(altera_avalon_jtag_uart_ioctl.o)
 .debug_frame   0x00001df8       0x3c ../../bsp/single-rtos_bsp//libucosii_bsp.a(altera_avalon_jtag_uart_read.o)
 .debug_frame   0x00001e34       0x38 ../../bsp/single-rtos_bsp//libucosii_bsp.a(altera_avalon_jtag_uart_write.o)
 .debug_frame   0x00001e6c       0xb0 ../../bsp/single-rtos_bsp//libucosii_bsp.a(altera_avalon_mutex.o)
 .debug_frame   0x00001f1c       0x38 ../../bsp/single-rtos_bsp//libucosii_bsp.a(altera_avalon_timer_sc.o)
 .debug_frame   0x00001f54       0x20 ../../bsp/single-rtos_bsp//libucosii_bsp.a(alt_alarm_start.o)
 .debug_frame   0x00001f74       0x20 ../../bsp/single-rtos_bsp//libucosii_bsp.a(alt_dcache_flush_all.o)
 .debug_frame   0x00001f94       0x28 ../../bsp/single-rtos_bsp//libucosii_bsp.a(alt_dev_llist_insert.o)
 .debug_frame   0x00001fbc       0x2c ../../bsp/single-rtos_bsp//libucosii_bsp.a(alt_do_ctors.o)
 .debug_frame   0x00001fe8       0x2c ../../bsp/single-rtos_bsp//libucosii_bsp.a(alt_do_dtors.o)
 .debug_frame   0x00002014       0x30 ../../bsp/single-rtos_bsp//libucosii_bsp.a(alt_find_dev.o)
 .debug_frame   0x00002044       0x20 ../../bsp/single-rtos_bsp//libucosii_bsp.a(alt_icache_flush_all.o)
 .debug_frame   0x00002064       0x50 ../../bsp/single-rtos_bsp//libucosii_bsp.a(alt_io_redirect.o)
 .debug_frame   0x000020b4       0x20 ../../bsp/single-rtos_bsp//libucosii_bsp.a(alt_irq_register.o)
 .debug_frame   0x000020d4       0x34 ../../bsp/single-rtos_bsp//libucosii_bsp.a(alt_open.o)
 .debug_frame   0x00002108       0x3c ../../bsp/single-rtos_bsp//libucosii_bsp.a(alt_tick.o)
 .debug_frame   0x00002144       0x20 ../../bsp/single-rtos_bsp//libucosii_bsp.a(altera_nios2_qsys_irq.o)
 .debug_frame   0x00002164       0xcc ../../bsp/single-rtos_bsp//libucosii_bsp.a(os_cpu_c.o)
 .debug_frame   0x00002230       0x30 ../../bsp/single-rtos_bsp//libucosii_bsp.a(alt_find_file.o)
 .debug_frame   0x00002260       0x2c ../../bsp/single-rtos_bsp//libucosii_bsp.a(alt_get_fd.o)
 .debug_frame   0x0000228c       0x28 ../../bsp/single-rtos_bsp//libucosii_bsp.a(alt_irq_handler.o)
 .debug_frame   0x000022b4       0x20 /opt/altera/13.0sp1/nios2eds/bin/gnu/H-i686-pc-linux-gnu/bin/../lib/gcc/nios2-elf/4.1.2/../../../../nios2-elf/lib/mno-hw-mul/libc.a(lib_a-atexit.o)
 .debug_frame   0x000022d4       0x28 /opt/altera/13.0sp1/nios2eds/bin/gnu/H-i686-pc-linux-gnu/bin/../lib/gcc/nios2-elf/4.1.2/../../../../nios2-elf/lib/mno-hw-mul/libc.a(lib_a-exit.o)
 .debug_frame   0x000022fc       0x20 /opt/altera/13.0sp1/nios2eds/bin/gnu/H-i686-pc-linux-gnu/bin/../lib/gcc/nios2-elf/4.1.2/../../../../nios2-elf/lib/mno-hw-mul/libc.a(lib_a-memcmp.o)
 .debug_frame   0x0000231c       0x34 /opt/altera/13.0sp1/nios2eds/bin/gnu/H-i686-pc-linux-gnu/bin/../lib/gcc/nios2-elf/4.1.2/../../../../nios2-elf/lib/mno-hw-mul/libc.a(lib_a-__atexit.o)
 .debug_frame   0x00002350       0x4c /opt/altera/13.0sp1/nios2eds/bin/gnu/H-i686-pc-linux-gnu/bin/../lib/gcc/nios2-elf/4.1.2/../../../../nios2-elf/lib/mno-hw-mul/libc.a(lib_a-__call_atexit.o)
 .debug_frame   0x0000239c       0x30 /opt/altera/13.0sp1/nios2eds/bin/gnu/H-i686-pc-linux-gnu/bin/../lib/gcc/nios2-elf/4.1.2/mno-hw-mul/libgcc.a(_fixunsdfsi.o)
 .debug_frame   0x000023cc       0x20 ../../bsp/single-rtos_bsp//libucosii_bsp.a(alt_exit.o)

.debug_str      0x00000000     0x4478
 *(.debug_str)
 .debug_str     0x00000000      0x3fe obj/default/src_0/cpu_0.o
                                0x473 (size before relaxing)
 .debug_str     0x000003fe      0x18a /opt/altera/13.0sp1/nios2eds/bin/gnu/H-i686-pc-linux-gnu/bin/../lib/gcc/nios2-elf/4.1.2/mno-hw-mul/libgcc.a(_div_df.o)
                                0x236 (size before relaxing)
 .debug_str     0x00000000      0x1a8 /opt/altera/13.0sp1/nios2eds/bin/gnu/H-i686-pc-linux-gnu/bin/../lib/gcc/nios2-elf/4.1.2/mno-hw-mul/libgcc.a(_thenan_df.o)
 .debug_str     0x00000588       0x1b /opt/altera/13.0sp1/nios2eds/bin/gnu/H-i686-pc-linux-gnu/bin/../lib/gcc/nios2-elf/4.1.2/mno-hw-mul/libgcc.a(_usi_to_df.o)
                                0x1df (size before relaxing)
 .debug_str     0x000005a3       0x93 /opt/altera/13.0sp1/nios2eds/bin/gnu/H-i686-pc-linux-gnu/bin/../lib/gcc/nios2-elf/4.1.2/mno-hw-mul/libgcc.a(lib2-divmod.o)
                                0x1b9 (size before relaxing)
 .debug_str     0x00000636       0x37 /opt/altera/13.0sp1/nios2eds/bin/gnu/H-i686-pc-linux-gnu/bin/../lib/gcc/nios2-elf/4.1.2/mno-hw-mul/libgcc.a(lib2-mul.o)
                                0x17a (size before relaxing)
 .debug_str     0x0000066d       0x40 /opt/altera/13.0sp1/nios2eds/bin/gnu/H-i686-pc-linux-gnu/bin/../lib/gcc/nios2-elf/4.1.2/mno-hw-mul/libgcc.a(_clzsi2.o)
                                0x183 (size before relaxing)
 .debug_str     0x000006ad       0x10 /opt/altera/13.0sp1/nios2eds/bin/gnu/H-i686-pc-linux-gnu/bin/../lib/gcc/nios2-elf/4.1.2/mno-hw-mul/libgcc.a(_pack_df.o)
                                0x20b (size before relaxing)
 .debug_str     0x000006bd        0xb /opt/altera/13.0sp1/nios2eds/bin/gnu/H-i686-pc-linux-gnu/bin/../lib/gcc/nios2-elf/4.1.2/mno-hw-mul/libgcc.a(_unpack_df.o)
                                0x1ed (size before relaxing)
 .debug_str     0x00000000      0x166 /opt/altera/13.0sp1/nios2eds/bin/gnu/H-i686-pc-linux-gnu/bin/../lib/gcc/nios2-elf/4.1.2/mno-hw-mul/libgcc.a(_clz.o)
 .debug_str     0x000006c8      0x425 /opt/altera/13.0sp1/nios2eds/bin/gnu/H-i686-pc-linux-gnu/bin/../lib/gcc/nios2-elf/4.1.2/../../../../nios2-elf/lib/mno-hw-mul/libc.a(lib_a-printf.o)
                                0x536 (size before relaxing)
 .debug_str     0x00000aed       0x51 /opt/altera/13.0sp1/nios2eds/bin/gnu/H-i686-pc-linux-gnu/bin/../lib/gcc/nios2-elf/4.1.2/../../../../nios2-elf/lib/mno-hw-mul/libc.a(lib_a-putchar.o)
                                0x522 (size before relaxing)
 .debug_str     0x00000b3e       0x84 /opt/altera/13.0sp1/nios2eds/bin/gnu/H-i686-pc-linux-gnu/bin/../lib/gcc/nios2-elf/4.1.2/../../../../nios2-elf/lib/mno-hw-mul/libc.a(lib_a-puts.o)
                                0x55c (size before relaxing)
 .debug_str     0x00000bc2       0xee /opt/altera/13.0sp1/nios2eds/bin/gnu/H-i686-pc-linux-gnu/bin/../lib/gcc/nios2-elf/4.1.2/../../../../nios2-elf/lib/mno-hw-mul/libc.a(lib_a-strlen.o)
                                0x190 (size before relaxing)
 .debug_str     0x00000cb0      0x181 /opt/altera/13.0sp1/nios2eds/bin/gnu/H-i686-pc-linux-gnu/bin/../lib/gcc/nios2-elf/4.1.2/../../../../nios2-elf/lib/mno-hw-mul/libc.a(lib_a-vfprintf.o)
                                0x70b (size before relaxing)
 .debug_str     0x00000e31       0x49 /opt/altera/13.0sp1/nios2eds/bin/gnu/H-i686-pc-linux-gnu/bin/../lib/gcc/nios2-elf/4.1.2/../../../../nios2-elf/lib/mno-hw-mul/libc.a(lib_a-wsetup.o)
                                0x51f (size before relaxing)
 .debug_str     0x00000e7a      0x1a1 /opt/altera/13.0sp1/nios2eds/bin/gnu/H-i686-pc-linux-gnu/bin/../lib/gcc/nios2-elf/4.1.2/../../../../nios2-elf/lib/mno-hw-mul/libc.a(lib_a-dtoa.o)
                                0x614 (size before relaxing)
 .debug_str     0x0000101b       0x68 /opt/altera/13.0sp1/nios2eds/bin/gnu/H-i686-pc-linux-gnu/bin/../lib/gcc/nios2-elf/4.1.2/../../../../nios2-elf/lib/mno-hw-mul/libc.a(lib_a-fflush.o)
                                0x545 (size before relaxing)
 .debug_str     0x00001083      0x105 /opt/altera/13.0sp1/nios2eds/bin/gnu/H-i686-pc-linux-gnu/bin/../lib/gcc/nios2-elf/4.1.2/../../../../nios2-elf/lib/mno-hw-mul/libc.a(lib_a-findfp.o)
                                0x607 (size before relaxing)
 .debug_str     0x00001188      0x15e /opt/altera/13.0sp1/nios2eds/bin/gnu/H-i686-pc-linux-gnu/bin/../lib/gcc/nios2-elf/4.1.2/../../../../nios2-elf/lib/mno-hw-mul/libc.a(lib_a-freer.o)
                                0x656 (size before relaxing)
 .debug_str     0x000012e6       0x69 /opt/altera/13.0sp1/nios2eds/bin/gnu/H-i686-pc-linux-gnu/bin/../lib/gcc/nios2-elf/4.1.2/../../../../nios2-elf/lib/mno-hw-mul/libc.a(lib_a-fvwrite.o)
                                0x576 (size before relaxing)
 .debug_str     0x0000134f       0x61 /opt/altera/13.0sp1/nios2eds/bin/gnu/H-i686-pc-linux-gnu/bin/../lib/gcc/nios2-elf/4.1.2/../../../../nios2-elf/lib/mno-hw-mul/libc.a(lib_a-fwalk.o)
                                0x548 (size before relaxing)
 .debug_str     0x000013b0       0xe4 /opt/altera/13.0sp1/nios2eds/bin/gnu/H-i686-pc-linux-gnu/bin/../lib/gcc/nios2-elf/4.1.2/../../../../nios2-elf/lib/mno-hw-mul/libc.a(lib_a-impure.o)
                                0x52d (size before relaxing)
 .debug_str     0x00001494      0x238 /opt/altera/13.0sp1/nios2eds/bin/gnu/H-i686-pc-linux-gnu/bin/../lib/gcc/nios2-elf/4.1.2/../../../../nios2-elf/lib/mno-hw-mul/libc.a(lib_a-locale.o)
                                0x6bc (size before relaxing)
 .debug_str     0x000016cc      0x126 /opt/altera/13.0sp1/nios2eds/bin/gnu/H-i686-pc-linux-gnu/bin/../lib/gcc/nios2-elf/4.1.2/../../../../nios2-elf/lib/mno-hw-mul/libc.a(lib_a-makebuf.o)
                                0x619 (size before relaxing)
 .debug_str     0x000017f2       0xef /opt/altera/13.0sp1/nios2eds/bin/gnu/H-i686-pc-linux-gnu/bin/../lib/gcc/nios2-elf/4.1.2/../../../../nios2-elf/lib/mno-hw-mul/libc.a(lib_a-mallocr.o)
                                0x704 (size before relaxing)
 .debug_str     0x000018e1       0x5a /opt/altera/13.0sp1/nios2eds/bin/gnu/H-i686-pc-linux-gnu/bin/../lib/gcc/nios2-elf/4.1.2/../../../../nios2-elf/lib/mno-hw-mul/libc.a(lib_a-memchr.o)
                                0x19e (size before relaxing)
 .debug_str     0x0000193b       0x6c /opt/altera/13.0sp1/nios2eds/bin/gnu/H-i686-pc-linux-gnu/bin/../lib/gcc/nios2-elf/4.1.2/../../../../nios2-elf/lib/mno-hw-mul/libc.a(lib_a-memcpy.o)
                                0x13b (size before relaxing)
 .debug_str     0x000019a7       0x50 /opt/altera/13.0sp1/nios2eds/bin/gnu/H-i686-pc-linux-gnu/bin/../lib/gcc/nios2-elf/4.1.2/../../../../nios2-elf/lib/mno-hw-mul/libc.a(lib_a-memmove.o)
                                0x1b0 (size before relaxing)
 .debug_str     0x000019f7       0x45 /opt/altera/13.0sp1/nios2eds/bin/gnu/H-i686-pc-linux-gnu/bin/../lib/gcc/nios2-elf/4.1.2/../../../../nios2-elf/lib/mno-hw-mul/libc.a(lib_a-memset.o)
                                0x191 (size before relaxing)
 .debug_str     0x00001a3c       0xfb /opt/altera/13.0sp1/nios2eds/bin/gnu/H-i686-pc-linux-gnu/bin/../lib/gcc/nios2-elf/4.1.2/../../../../nios2-elf/lib/mno-hw-mul/libc.a(lib_a-mprec.o)
                                0x621 (size before relaxing)
 .debug_str     0x00001b37       0x48 /opt/altera/13.0sp1/nios2eds/bin/gnu/H-i686-pc-linux-gnu/bin/../lib/gcc/nios2-elf/4.1.2/../../../../nios2-elf/lib/mno-hw-mul/libc.a(lib_a-putc.o)
                                0x525 (size before relaxing)
 .debug_str     0x00001b7f       0x54 /opt/altera/13.0sp1/nios2eds/bin/gnu/H-i686-pc-linux-gnu/bin/../lib/gcc/nios2-elf/4.1.2/../../../../nios2-elf/lib/mno-hw-mul/libc.a(lib_a-reallocr.o)
                                0x5d6 (size before relaxing)
 .debug_str     0x00001bd3       0xef /opt/altera/13.0sp1/nios2eds/bin/gnu/H-i686-pc-linux-gnu/bin/../lib/gcc/nios2-elf/4.1.2/../../../../nios2-elf/lib/mno-hw-mul/libc.a(lib_a-s_isinfd.o)
                                0x19d (size before relaxing)
 .debug_str     0x00001cc2       0x49 /opt/altera/13.0sp1/nios2eds/bin/gnu/H-i686-pc-linux-gnu/bin/../lib/gcc/nios2-elf/4.1.2/../../../../nios2-elf/lib/mno-hw-mul/libc.a(lib_a-s_isnand.o)
                                0x19d (size before relaxing)
 .debug_str     0x00001d0b       0x53 /opt/altera/13.0sp1/nios2eds/bin/gnu/H-i686-pc-linux-gnu/bin/../lib/gcc/nios2-elf/4.1.2/../../../../nios2-elf/lib/mno-hw-mul/libc.a(lib_a-sbrkr.o)
                                0x51e (size before relaxing)
 .debug_str     0x00001d5e       0x65 /opt/altera/13.0sp1/nios2eds/bin/gnu/H-i686-pc-linux-gnu/bin/../lib/gcc/nios2-elf/4.1.2/../../../../nios2-elf/lib/mno-hw-mul/libc.a(lib_a-stdio.o)
                                0x544 (size before relaxing)
 .debug_str     0x00001dc3       0x45 /opt/altera/13.0sp1/nios2eds/bin/gnu/H-i686-pc-linux-gnu/bin/../lib/gcc/nios2-elf/4.1.2/../../../../nios2-elf/lib/mno-hw-mul/libc.a(lib_a-strcmp.o)
                                0x176 (size before relaxing)
 .debug_str     0x00001e08       0x4d /opt/altera/13.0sp1/nios2eds/bin/gnu/H-i686-pc-linux-gnu/bin/../lib/gcc/nios2-elf/4.1.2/../../../../nios2-elf/lib/mno-hw-mul/libc.a(lib_a-wbuf.o)
                                0x523 (size before relaxing)
 .debug_str     0x00001e55       0x4f /opt/altera/13.0sp1/nios2eds/bin/gnu/H-i686-pc-linux-gnu/bin/../lib/gcc/nios2-elf/4.1.2/../../../../nios2-elf/lib/mno-hw-mul/libc.a(lib_a-writer.o)
                                0x521 (size before relaxing)
 .debug_str     0x00001ea4       0x19 /opt/altera/13.0sp1/nios2eds/bin/gnu/H-i686-pc-linux-gnu/bin/../lib/gcc/nios2-elf/4.1.2/../../../../nios2-elf/lib/mno-hw-mul/libc.a(lib_a-callocr.o)
                                0x555 (size before relaxing)
 .debug_str     0x00001ebd       0x46 /opt/altera/13.0sp1/nios2eds/bin/gnu/H-i686-pc-linux-gnu/bin/../lib/gcc/nios2-elf/4.1.2/../../../../nios2-elf/lib/mno-hw-mul/libc.a(lib_a-closer.o)
                                0x511 (size before relaxing)
 .debug_str     0x00001f03       0x4e /opt/altera/13.0sp1/nios2eds/bin/gnu/H-i686-pc-linux-gnu/bin/../lib/gcc/nios2-elf/4.1.2/../../../../nios2-elf/lib/mno-hw-mul/libc.a(lib_a-fclose.o)
                                0x529 (size before relaxing)
 .debug_str     0x00001f51       0x4c /opt/altera/13.0sp1/nios2eds/bin/gnu/H-i686-pc-linux-gnu/bin/../lib/gcc/nios2-elf/4.1.2/../../../../nios2-elf/lib/mno-hw-mul/libc.a(lib_a-fstatr.o)
                                0x604 (size before relaxing)
 .debug_str     0x00001f9d       0x40 /opt/altera/13.0sp1/nios2eds/bin/gnu/H-i686-pc-linux-gnu/bin/../lib/gcc/nios2-elf/4.1.2/../../../../nios2-elf/lib/mno-hw-mul/libc.a(lib_a-int_errno.o)
                                0x176 (size before relaxing)
 .debug_str     0x00001fdd       0x48 /opt/altera/13.0sp1/nios2eds/bin/gnu/H-i686-pc-linux-gnu/bin/../lib/gcc/nios2-elf/4.1.2/../../../../nios2-elf/lib/mno-hw-mul/libc.a(lib_a-isattyr.o)
                                0x513 (size before relaxing)
 .debug_str     0x00002025       0x46 /opt/altera/13.0sp1/nios2eds/bin/gnu/H-i686-pc-linux-gnu/bin/../lib/gcc/nios2-elf/4.1.2/../../../../nios2-elf/lib/mno-hw-mul/libc.a(lib_a-lseekr.o)
                                0x51f (size before relaxing)
 .debug_str     0x0000206b       0x44 /opt/altera/13.0sp1/nios2eds/bin/gnu/H-i686-pc-linux-gnu/bin/../lib/gcc/nios2-elf/4.1.2/../../../../nios2-elf/lib/mno-hw-mul/libc.a(lib_a-readr.o)
                                0x51f (size before relaxing)
 .debug_str     0x000020af       0x73 /opt/altera/13.0sp1/nios2eds/bin/gnu/H-i686-pc-linux-gnu/bin/../lib/gcc/nios2-elf/4.1.2/mno-hw-mul/libgcc.a(_udivdi3.o)
                                0x1fc (size before relaxing)
 .debug_str     0x00002122        0xa /opt/altera/13.0sp1/nios2eds/bin/gnu/H-i686-pc-linux-gnu/bin/../lib/gcc/nios2-elf/4.1.2/mno-hw-mul/libgcc.a(_umoddi3.o)
                                0x1fc (size before relaxing)
 .debug_str     0x0000212c       0x67 /opt/altera/13.0sp1/nios2eds/bin/gnu/H-i686-pc-linux-gnu/bin/../lib/gcc/nios2-elf/4.1.2/mno-hw-mul/libgcc.a(_addsub_df.o)
                                0x274 (size before relaxing)
 .debug_str     0x00002193       0x40 /opt/altera/13.0sp1/nios2eds/bin/gnu/H-i686-pc-linux-gnu/bin/../lib/gcc/nios2-elf/4.1.2/mno-hw-mul/libgcc.a(_mul_df.o)
                                0x246 (size before relaxing)
 .debug_str     0x000021d3        0x8 /opt/altera/13.0sp1/nios2eds/bin/gnu/H-i686-pc-linux-gnu/bin/../lib/gcc/nios2-elf/4.1.2/mno-hw-mul/libgcc.a(_eq_df.o)
                                0x203 (size before relaxing)
 .debug_str     0x000021db        0x8 /opt/altera/13.0sp1/nios2eds/bin/gnu/H-i686-pc-linux-gnu/bin/../lib/gcc/nios2-elf/4.1.2/mno-hw-mul/libgcc.a(_ne_df.o)
                                0x203 (size before relaxing)
 .debug_str     0x000021e3        0x8 /opt/altera/13.0sp1/nios2eds/bin/gnu/H-i686-pc-linux-gnu/bin/../lib/gcc/nios2-elf/4.1.2/mno-hw-mul/libgcc.a(_gt_df.o)
                                0x203 (size before relaxing)
 .debug_str     0x000021eb        0x8 /opt/altera/13.0sp1/nios2eds/bin/gnu/H-i686-pc-linux-gnu/bin/../lib/gcc/nios2-elf/4.1.2/mno-hw-mul/libgcc.a(_ge_df.o)
                                0x203 (size before relaxing)
 .debug_str     0x000021f3        0x8 /opt/altera/13.0sp1/nios2eds/bin/gnu/H-i686-pc-linux-gnu/bin/../lib/gcc/nios2-elf/4.1.2/mno-hw-mul/libgcc.a(_lt_df.o)
                                0x203 (size before relaxing)
 .debug_str     0x000021fb       0x11 /opt/altera/13.0sp1/nios2eds/bin/gnu/H-i686-pc-linux-gnu/bin/../lib/gcc/nios2-elf/4.1.2/mno-hw-mul/libgcc.a(_si_to_df.o)
                                0x1e3 (size before relaxing)
 .debug_str     0x0000220c        0xa /opt/altera/13.0sp1/nios2eds/bin/gnu/H-i686-pc-linux-gnu/bin/../lib/gcc/nios2-elf/4.1.2/mno-hw-mul/libgcc.a(_df_to_si.o)
                                0x20c (size before relaxing)
 .debug_str     0x00002216        0x9 /opt/altera/13.0sp1/nios2eds/bin/gnu/H-i686-pc-linux-gnu/bin/../lib/gcc/nios2-elf/4.1.2/mno-hw-mul/libgcc.a(_muldi3.o)
                                0x1b1 (size before relaxing)
 .debug_str     0x0000221f       0x10 /opt/altera/13.0sp1/nios2eds/bin/gnu/H-i686-pc-linux-gnu/bin/../lib/gcc/nios2-elf/4.1.2/mno-hw-mul/libgcc.a(_fpcmp_parts_df.o)
                                0x1cb (size before relaxing)
 .debug_str     0x0000222f       0xf6 ../../bsp/single-rtos_bsp//libucosii_bsp.a(alt_close.o)
                                0x213 (size before relaxing)
 .debug_str     0x00002325       0x61 ../../bsp/single-rtos_bsp//libucosii_bsp.a(alt_dev.o)
                                0x381 (size before relaxing)
 .debug_str     0x00002386       0x14 ../../bsp/single-rtos_bsp//libucosii_bsp.a(alt_errno.o)
                                 0xfc (size before relaxing)
 .debug_str     0x0000239a       0x14 ../../bsp/single-rtos_bsp//libucosii_bsp.a(alt_fstat.o)
                                0x2f4 (size before relaxing)
 .debug_str     0x000023ae       0x1c ../../bsp/single-rtos_bsp//libucosii_bsp.a(alt_isatty.o)
                                0x2fc (size before relaxing)
 .debug_str     0x000023ca       0xe9 ../../bsp/single-rtos_bsp//libucosii_bsp.a(alt_load.o)
                                0x1c9 (size before relaxing)
 .debug_str     0x000024b3       0x14 ../../bsp/single-rtos_bsp//libucosii_bsp.a(alt_lseek.o)
                                0x219 (size before relaxing)
 .debug_str     0x000024c7       0x5d ../../bsp/single-rtos_bsp//libucosii_bsp.a(alt_main.o)
                                0x238 (size before relaxing)
 .debug_str     0x00002524       0x13 ../../bsp/single-rtos_bsp//libucosii_bsp.a(alt_read.o)
                                0x2ff (size before relaxing)
 .debug_str     0x00002537       0x28 ../../bsp/single-rtos_bsp//libucosii_bsp.a(alt_release_fd.o)
                                0x1fd (size before relaxing)
 .debug_str     0x0000255f       0x9d ../../bsp/single-rtos_bsp//libucosii_bsp.a(alt_sbrk.o)
                                0x1b4 (size before relaxing)
 .debug_str     0x000025fc       0x14 ../../bsp/single-rtos_bsp//libucosii_bsp.a(alt_write.o)
                                0x300 (size before relaxing)
 .debug_str     0x00002610      0x246 ../../bsp/single-rtos_bsp//libucosii_bsp.a(alt_env_lock.o)
                                0x77f (size before relaxing)
 .debug_str     0x00002856       0x54 ../../bsp/single-rtos_bsp//libucosii_bsp.a(alt_malloc_lock.o)
                                0x7e1 (size before relaxing)
 .debug_str     0x000028aa      0x669 ../../bsp/single-rtos_bsp//libucosii_bsp.a(os_core.o)
                                0xa61 (size before relaxing)
 .debug_str     0x00002f13      0x2e5 ../../bsp/single-rtos_bsp//libucosii_bsp.a(os_dbg.o)
                                0x9d0 (size before relaxing)
 .debug_str     0x000031f8      0x136 ../../bsp/single-rtos_bsp//libucosii_bsp.a(os_flag.o)
                                0x5ca (size before relaxing)
 .debug_str     0x0000332e       0xcf ../../bsp/single-rtos_bsp//libucosii_bsp.a(os_mem.o)
                                0x2d3 (size before relaxing)
 .debug_str     0x000033fd       0xc0 ../../bsp/single-rtos_bsp//libucosii_bsp.a(os_q.o)
                                0x54d (size before relaxing)
 .debug_str     0x000034bd       0x77 ../../bsp/single-rtos_bsp//libucosii_bsp.a(os_sem.o)
                                0x4d6 (size before relaxing)
 .debug_str     0x00003534      0x118 ../../bsp/single-rtos_bsp//libucosii_bsp.a(os_task.o)
                                0x5d9 (size before relaxing)
 .debug_str     0x0000364c       0x6d ../../bsp/single-rtos_bsp//libucosii_bsp.a(os_time.o)
                                0x479 (size before relaxing)
 .debug_str     0x000036b9      0x123 ../../bsp/single-rtos_bsp//libucosii_bsp.a(os_tmr.o)
                                0x436 (size before relaxing)
 .debug_str     0x000037dc      0x21c ../../bsp/single-rtos_bsp//libucosii_bsp.a(alt_sys_init.o)
                                0x525 (size before relaxing)
 .debug_str     0x000039f8       0xac ../../bsp/single-rtos_bsp//libucosii_bsp.a(altera_avalon_jtag_uart_fd.o)
                                0x46c (size before relaxing)
 .debug_str     0x00003aa4       0xf6 ../../bsp/single-rtos_bsp//libucosii_bsp.a(altera_avalon_jtag_uart_init.o)
                                0x433 (size before relaxing)
 .debug_str     0x00003b9a       0x4a ../../bsp/single-rtos_bsp//libucosii_bsp.a(altera_avalon_jtag_uart_ioctl.o)
                                0x35b (size before relaxing)
 .debug_str     0x00003be4       0x63 ../../bsp/single-rtos_bsp//libucosii_bsp.a(altera_avalon_jtag_uart_read.o)
                                0x3ce (size before relaxing)
 .debug_str     0x00003c47       0x4a ../../bsp/single-rtos_bsp//libucosii_bsp.a(altera_avalon_jtag_uart_write.o)
                                0x3cf (size before relaxing)
 .debug_str     0x00003c91       0xf8 ../../bsp/single-rtos_bsp//libucosii_bsp.a(altera_avalon_mutex.o)
                                0x33a (size before relaxing)
 .debug_str     0x00003d89       0x66 ../../bsp/single-rtos_bsp//libucosii_bsp.a(altera_avalon_timer_sc.o)
                                0x21c (size before relaxing)
 .debug_str     0x00003def       0x5f ../../bsp/single-rtos_bsp//libucosii_bsp.a(alt_alarm_start.o)
                                0x256 (size before relaxing)
 .debug_str     0x00003e4e       0x34 ../../bsp/single-rtos_bsp//libucosii_bsp.a(alt_dcache_flush_all.o)
                                0x10c (size before relaxing)
 .debug_str     0x00003e82       0x42 ../../bsp/single-rtos_bsp//libucosii_bsp.a(alt_dev_llist_insert.o)
                                0x183 (size before relaxing)
 .debug_str     0x00003ec4       0x48 ../../bsp/single-rtos_bsp//libucosii_bsp.a(alt_do_ctors.o)
                                 0x9c (size before relaxing)
 .debug_str     0x00003f0c       0x4c ../../bsp/single-rtos_bsp//libucosii_bsp.a(alt_do_dtors.o)
                                 0x9b (size before relaxing)
 .debug_str     0x00003f58       0x24 ../../bsp/single-rtos_bsp//libucosii_bsp.a(alt_find_dev.o)
                                0x1f4 (size before relaxing)
 .debug_str     0x00003f7c       0x34 ../../bsp/single-rtos_bsp//libucosii_bsp.a(alt_icache_flush_all.o)
                                0x10c (size before relaxing)
 .debug_str     0x00003fb0       0x56 ../../bsp/single-rtos_bsp//libucosii_bsp.a(alt_io_redirect.o)
                                0x31e (size before relaxing)
 .debug_str     0x00004006       0x77 ../../bsp/single-rtos_bsp//libucosii_bsp.a(alt_irq_register.o)
                                0x1e7 (size before relaxing)
 .debug_str     0x0000407d       0x17 ../../bsp/single-rtos_bsp//libucosii_bsp.a(alt_irq_vars.o)
                                0x106 (size before relaxing)
 .debug_str     0x00004094       0x29 ../../bsp/single-rtos_bsp//libucosii_bsp.a(alt_open.o)
                                0x24b (size before relaxing)
 .debug_str     0x000040bd       0x4a ../../bsp/single-rtos_bsp//libucosii_bsp.a(alt_tick.o)
                                0x237 (size before relaxing)
 .debug_str     0x00004107       0x3b ../../bsp/single-rtos_bsp//libucosii_bsp.a(altera_nios2_qsys_irq.o)
                                0x13c (size before relaxing)
 .debug_str     0x00004142       0xde ../../bsp/single-rtos_bsp//libucosii_bsp.a(os_cpu_c.o)
                                0x7fd (size before relaxing)
 .debug_str     0x00004220       0x26 ../../bsp/single-rtos_bsp//libucosii_bsp.a(alt_find_file.o)
                                0x202 (size before relaxing)
 .debug_str     0x00004246       0x30 ../../bsp/single-rtos_bsp//libucosii_bsp.a(alt_get_fd.o)
                                0x2a0 (size before relaxing)
 .debug_str     0x00004276       0x3a ../../bsp/single-rtos_bsp//libucosii_bsp.a(alt_irq_handler.o)
                                0x197 (size before relaxing)
 .debug_str     0x000042b0       0x3e /opt/altera/13.0sp1/nios2eds/bin/gnu/H-i686-pc-linux-gnu/bin/../lib/gcc/nios2-elf/4.1.2/../../../../nios2-elf/lib/mno-hw-mul/libc.a(lib_a-atexit.o)
                                0x1d2 (size before relaxing)
 .debug_str     0x000042ee       0x3c /opt/altera/13.0sp1/nios2eds/bin/gnu/H-i686-pc-linux-gnu/bin/../lib/gcc/nios2-elf/4.1.2/../../../../nios2-elf/lib/mno-hw-mul/libc.a(lib_a-exit.o)
                                0x51f (size before relaxing)
 .debug_str     0x0000432a       0x45 /opt/altera/13.0sp1/nios2eds/bin/gnu/H-i686-pc-linux-gnu/bin/../lib/gcc/nios2-elf/4.1.2/../../../../nios2-elf/lib/mno-hw-mul/libc.a(lib_a-memcmp.o)
                                0x17d (size before relaxing)
 .debug_str     0x0000436f       0x54 /opt/altera/13.0sp1/nios2eds/bin/gnu/H-i686-pc-linux-gnu/bin/../lib/gcc/nios2-elf/4.1.2/../../../../nios2-elf/lib/mno-hw-mul/libc.a(lib_a-__atexit.o)
                                0x537 (size before relaxing)
 .debug_str     0x000043c3       0x7e /opt/altera/13.0sp1/nios2eds/bin/gnu/H-i686-pc-linux-gnu/bin/../lib/gcc/nios2-elf/4.1.2/../../../../nios2-elf/lib/mno-hw-mul/libc.a(lib_a-__call_atexit.o)
                                0x561 (size before relaxing)
 .debug_str     0x00004441        0xd /opt/altera/13.0sp1/nios2eds/bin/gnu/H-i686-pc-linux-gnu/bin/../lib/gcc/nios2-elf/4.1.2/mno-hw-mul/libgcc.a(_fixunsdfsi.o)
                                0x170 (size before relaxing)
 .debug_str     0x0000444e       0x2a ../../bsp/single-rtos_bsp//libucosii_bsp.a(alt_exit.o)
                                0x16b (size before relaxing)

.debug_loc      0x00000000    0x11579
 *(.debug_loc)
 .debug_loc     0x00000000      0x992 obj/default/src_0/cpu_0.o
 .debug_loc     0x00000992      0x1df /opt/altera/13.0sp1/nios2eds/bin/gnu/H-i686-pc-linux-gnu/bin/../lib/gcc/nios2-elf/4.1.2/mno-hw-mul/libgcc.a(_div_df.o)
 .debug_loc     0x00000b71       0x5b /opt/altera/13.0sp1/nios2eds/bin/gnu/H-i686-pc-linux-gnu/bin/../lib/gcc/nios2-elf/4.1.2/mno-hw-mul/libgcc.a(_usi_to_df.o)
 .debug_loc     0x00000bcc      0x1d2 /opt/altera/13.0sp1/nios2eds/bin/gnu/H-i686-pc-linux-gnu/bin/../lib/gcc/nios2-elf/4.1.2/mno-hw-mul/libgcc.a(lib2-divmod.o)
 .debug_loc     0x00000d9e       0x4f /opt/altera/13.0sp1/nios2eds/bin/gnu/H-i686-pc-linux-gnu/bin/../lib/gcc/nios2-elf/4.1.2/mno-hw-mul/libgcc.a(lib2-mul.o)
 .debug_loc     0x00000ded       0x1e /opt/altera/13.0sp1/nios2eds/bin/gnu/H-i686-pc-linux-gnu/bin/../lib/gcc/nios2-elf/4.1.2/mno-hw-mul/libgcc.a(_clzsi2.o)
 .debug_loc     0x00000e0b      0x184 /opt/altera/13.0sp1/nios2eds/bin/gnu/H-i686-pc-linux-gnu/bin/../lib/gcc/nios2-elf/4.1.2/mno-hw-mul/libgcc.a(_pack_df.o)
 .debug_loc     0x00000f8f       0xe5 /opt/altera/13.0sp1/nios2eds/bin/gnu/H-i686-pc-linux-gnu/bin/../lib/gcc/nios2-elf/4.1.2/mno-hw-mul/libgcc.a(_unpack_df.o)
 .debug_loc     0x00001074       0xcb /opt/altera/13.0sp1/nios2eds/bin/gnu/H-i686-pc-linux-gnu/bin/../lib/gcc/nios2-elf/4.1.2/../../../../nios2-elf/lib/mno-hw-mul/libc.a(lib_a-printf.o)
 .debug_loc     0x0000113f       0x44 /opt/altera/13.0sp1/nios2eds/bin/gnu/H-i686-pc-linux-gnu/bin/../lib/gcc/nios2-elf/4.1.2/../../../../nios2-elf/lib/mno-hw-mul/libc.a(lib_a-putchar.o)
 .debug_loc     0x00001183       0xa2 /opt/altera/13.0sp1/nios2eds/bin/gnu/H-i686-pc-linux-gnu/bin/../lib/gcc/nios2-elf/4.1.2/../../../../nios2-elf/lib/mno-hw-mul/libc.a(lib_a-puts.o)
 .debug_loc     0x00001225       0x3c /opt/altera/13.0sp1/nios2eds/bin/gnu/H-i686-pc-linux-gnu/bin/../lib/gcc/nios2-elf/4.1.2/../../../../nios2-elf/lib/mno-hw-mul/libc.a(lib_a-strlen.o)
 .debug_loc     0x00001261     0x1dc0 /opt/altera/13.0sp1/nios2eds/bin/gnu/H-i686-pc-linux-gnu/bin/../lib/gcc/nios2-elf/4.1.2/../../../../nios2-elf/lib/mno-hw-mul/libc.a(lib_a-vfprintf.o)
 .debug_loc     0x00003021       0x7c /opt/altera/13.0sp1/nios2eds/bin/gnu/H-i686-pc-linux-gnu/bin/../lib/gcc/nios2-elf/4.1.2/../../../../nios2-elf/lib/mno-hw-mul/libc.a(lib_a-wsetup.o)
 .debug_loc     0x0000309d     0x1da7 /opt/altera/13.0sp1/nios2eds/bin/gnu/H-i686-pc-linux-gnu/bin/../lib/gcc/nios2-elf/4.1.2/../../../../nios2-elf/lib/mno-hw-mul/libc.a(lib_a-dtoa.o)
 .debug_loc     0x00004e44      0x1f6 /opt/altera/13.0sp1/nios2eds/bin/gnu/H-i686-pc-linux-gnu/bin/../lib/gcc/nios2-elf/4.1.2/../../../../nios2-elf/lib/mno-hw-mul/libc.a(lib_a-fflush.o)
 .debug_loc     0x0000503a      0x1e1 /opt/altera/13.0sp1/nios2eds/bin/gnu/H-i686-pc-linux-gnu/bin/../lib/gcc/nios2-elf/4.1.2/../../../../nios2-elf/lib/mno-hw-mul/libc.a(lib_a-findfp.o)
 .debug_loc     0x0000521b      0x4a7 /opt/altera/13.0sp1/nios2eds/bin/gnu/H-i686-pc-linux-gnu/bin/../lib/gcc/nios2-elf/4.1.2/../../../../nios2-elf/lib/mno-hw-mul/libc.a(lib_a-freer.o)
 .debug_loc     0x000056c2      0x4e4 /opt/altera/13.0sp1/nios2eds/bin/gnu/H-i686-pc-linux-gnu/bin/../lib/gcc/nios2-elf/4.1.2/../../../../nios2-elf/lib/mno-hw-mul/libc.a(lib_a-fvwrite.o)
 .debug_loc     0x00005ba6      0x1d2 /opt/altera/13.0sp1/nios2eds/bin/gnu/H-i686-pc-linux-gnu/bin/../lib/gcc/nios2-elf/4.1.2/../../../../nios2-elf/lib/mno-hw-mul/libc.a(lib_a-fwalk.o)
 .debug_loc     0x00005d78       0xe1 /opt/altera/13.0sp1/nios2eds/bin/gnu/H-i686-pc-linux-gnu/bin/../lib/gcc/nios2-elf/4.1.2/../../../../nios2-elf/lib/mno-hw-mul/libc.a(lib_a-locale.o)
 .debug_loc     0x00005e59      0x11c /opt/altera/13.0sp1/nios2eds/bin/gnu/H-i686-pc-linux-gnu/bin/../lib/gcc/nios2-elf/4.1.2/../../../../nios2-elf/lib/mno-hw-mul/libc.a(lib_a-makebuf.o)
 .debug_loc     0x00005f75      0xaeb /opt/altera/13.0sp1/nios2eds/bin/gnu/H-i686-pc-linux-gnu/bin/../lib/gcc/nios2-elf/4.1.2/../../../../nios2-elf/lib/mno-hw-mul/libc.a(lib_a-mallocr.o)
 .debug_loc     0x00006a60      0x106 /opt/altera/13.0sp1/nios2eds/bin/gnu/H-i686-pc-linux-gnu/bin/../lib/gcc/nios2-elf/4.1.2/../../../../nios2-elf/lib/mno-hw-mul/libc.a(lib_a-memchr.o)
 .debug_loc     0x00006b66       0xca /opt/altera/13.0sp1/nios2eds/bin/gnu/H-i686-pc-linux-gnu/bin/../lib/gcc/nios2-elf/4.1.2/../../../../nios2-elf/lib/mno-hw-mul/libc.a(lib_a-memcpy.o)
 .debug_loc     0x00006c30      0x117 /opt/altera/13.0sp1/nios2eds/bin/gnu/H-i686-pc-linux-gnu/bin/../lib/gcc/nios2-elf/4.1.2/../../../../nios2-elf/lib/mno-hw-mul/libc.a(lib_a-memmove.o)
 .debug_loc     0x00006d47       0xa1 /opt/altera/13.0sp1/nios2eds/bin/gnu/H-i686-pc-linux-gnu/bin/../lib/gcc/nios2-elf/4.1.2/../../../../nios2-elf/lib/mno-hw-mul/libc.a(lib_a-memset.o)
 .debug_loc     0x00006de8     0x1547 /opt/altera/13.0sp1/nios2eds/bin/gnu/H-i686-pc-linux-gnu/bin/../lib/gcc/nios2-elf/4.1.2/../../../../nios2-elf/lib/mno-hw-mul/libc.a(lib_a-mprec.o)
 .debug_loc     0x0000832f      0x20d /opt/altera/13.0sp1/nios2eds/bin/gnu/H-i686-pc-linux-gnu/bin/../lib/gcc/nios2-elf/4.1.2/../../../../nios2-elf/lib/mno-hw-mul/libc.a(lib_a-putc.o)
 .debug_loc     0x0000853c      0x8c0 /opt/altera/13.0sp1/nios2eds/bin/gnu/H-i686-pc-linux-gnu/bin/../lib/gcc/nios2-elf/4.1.2/../../../../nios2-elf/lib/mno-hw-mul/libc.a(lib_a-reallocr.o)
 .debug_loc     0x00008dfc       0x36 /opt/altera/13.0sp1/nios2eds/bin/gnu/H-i686-pc-linux-gnu/bin/../lib/gcc/nios2-elf/4.1.2/../../../../nios2-elf/lib/mno-hw-mul/libc.a(lib_a-s_isinfd.o)
 .debug_loc     0x00008e32       0x18 /opt/altera/13.0sp1/nios2eds/bin/gnu/H-i686-pc-linux-gnu/bin/../lib/gcc/nios2-elf/4.1.2/../../../../nios2-elf/lib/mno-hw-mul/libc.a(lib_a-s_isnand.o)
 .debug_loc     0x00008e4a       0x5b /opt/altera/13.0sp1/nios2eds/bin/gnu/H-i686-pc-linux-gnu/bin/../lib/gcc/nios2-elf/4.1.2/../../../../nios2-elf/lib/mno-hw-mul/libc.a(lib_a-sbrkr.o)
 .debug_loc     0x00008ea5      0x21f /opt/altera/13.0sp1/nios2eds/bin/gnu/H-i686-pc-linux-gnu/bin/../lib/gcc/nios2-elf/4.1.2/../../../../nios2-elf/lib/mno-hw-mul/libc.a(lib_a-stdio.o)
 .debug_loc     0x000090c4       0x65 /opt/altera/13.0sp1/nios2eds/bin/gnu/H-i686-pc-linux-gnu/bin/../lib/gcc/nios2-elf/4.1.2/../../../../nios2-elf/lib/mno-hw-mul/libc.a(lib_a-strcmp.o)
 .debug_loc     0x00009129      0x157 /opt/altera/13.0sp1/nios2eds/bin/gnu/H-i686-pc-linux-gnu/bin/../lib/gcc/nios2-elf/4.1.2/../../../../nios2-elf/lib/mno-hw-mul/libc.a(lib_a-wbuf.o)
 .debug_loc     0x00009280       0x97 /opt/altera/13.0sp1/nios2eds/bin/gnu/H-i686-pc-linux-gnu/bin/../lib/gcc/nios2-elf/4.1.2/../../../../nios2-elf/lib/mno-hw-mul/libc.a(lib_a-writer.o)
 .debug_loc     0x00009317       0xff /opt/altera/13.0sp1/nios2eds/bin/gnu/H-i686-pc-linux-gnu/bin/../lib/gcc/nios2-elf/4.1.2/../../../../nios2-elf/lib/mno-hw-mul/libc.a(lib_a-callocr.o)
 .debug_loc     0x00009416       0x5b /opt/altera/13.0sp1/nios2eds/bin/gnu/H-i686-pc-linux-gnu/bin/../lib/gcc/nios2-elf/4.1.2/../../../../nios2-elf/lib/mno-hw-mul/libc.a(lib_a-closer.o)
 .debug_loc     0x00009471       0xe4 /opt/altera/13.0sp1/nios2eds/bin/gnu/H-i686-pc-linux-gnu/bin/../lib/gcc/nios2-elf/4.1.2/../../../../nios2-elf/lib/mno-hw-mul/libc.a(lib_a-fclose.o)
 .debug_loc     0x00009555       0x79 /opt/altera/13.0sp1/nios2eds/bin/gnu/H-i686-pc-linux-gnu/bin/../lib/gcc/nios2-elf/4.1.2/../../../../nios2-elf/lib/mno-hw-mul/libc.a(lib_a-fstatr.o)
 .debug_loc     0x000095ce       0x5b /opt/altera/13.0sp1/nios2eds/bin/gnu/H-i686-pc-linux-gnu/bin/../lib/gcc/nios2-elf/4.1.2/../../../../nios2-elf/lib/mno-hw-mul/libc.a(lib_a-isattyr.o)
 .debug_loc     0x00009629       0x97 /opt/altera/13.0sp1/nios2eds/bin/gnu/H-i686-pc-linux-gnu/bin/../lib/gcc/nios2-elf/4.1.2/../../../../nios2-elf/lib/mno-hw-mul/libc.a(lib_a-lseekr.o)
 .debug_loc     0x000096c0       0x97 /opt/altera/13.0sp1/nios2eds/bin/gnu/H-i686-pc-linux-gnu/bin/../lib/gcc/nios2-elf/4.1.2/../../../../nios2-elf/lib/mno-hw-mul/libc.a(lib_a-readr.o)
 .debug_loc     0x00009757      0xc12 /opt/altera/13.0sp1/nios2eds/bin/gnu/H-i686-pc-linux-gnu/bin/../lib/gcc/nios2-elf/4.1.2/mno-hw-mul/libgcc.a(_udivdi3.o)
 .debug_loc     0x0000a369      0xbcc /opt/altera/13.0sp1/nios2eds/bin/gnu/H-i686-pc-linux-gnu/bin/../lib/gcc/nios2-elf/4.1.2/mno-hw-mul/libgcc.a(_umoddi3.o)
 .debug_loc     0x0000af35      0x47a /opt/altera/13.0sp1/nios2eds/bin/gnu/H-i686-pc-linux-gnu/bin/../lib/gcc/nios2-elf/4.1.2/mno-hw-mul/libgcc.a(_addsub_df.o)
 .debug_loc     0x0000b3af      0x3b4 /opt/altera/13.0sp1/nios2eds/bin/gnu/H-i686-pc-linux-gnu/bin/../lib/gcc/nios2-elf/4.1.2/mno-hw-mul/libgcc.a(_mul_df.o)
 .debug_loc     0x0000b763       0x70 /opt/altera/13.0sp1/nios2eds/bin/gnu/H-i686-pc-linux-gnu/bin/../lib/gcc/nios2-elf/4.1.2/mno-hw-mul/libgcc.a(_eq_df.o)
 .debug_loc     0x0000b7d3       0x70 /opt/altera/13.0sp1/nios2eds/bin/gnu/H-i686-pc-linux-gnu/bin/../lib/gcc/nios2-elf/4.1.2/mno-hw-mul/libgcc.a(_ne_df.o)
 .debug_loc     0x0000b843       0x70 /opt/altera/13.0sp1/nios2eds/bin/gnu/H-i686-pc-linux-gnu/bin/../lib/gcc/nios2-elf/4.1.2/mno-hw-mul/libgcc.a(_gt_df.o)
 .debug_loc     0x0000b8b3       0x70 /opt/altera/13.0sp1/nios2eds/bin/gnu/H-i686-pc-linux-gnu/bin/../lib/gcc/nios2-elf/4.1.2/mno-hw-mul/libgcc.a(_ge_df.o)
 .debug_loc     0x0000b923       0x70 /opt/altera/13.0sp1/nios2eds/bin/gnu/H-i686-pc-linux-gnu/bin/../lib/gcc/nios2-elf/4.1.2/mno-hw-mul/libgcc.a(_lt_df.o)
 .debug_loc     0x0000b993       0x9a /opt/altera/13.0sp1/nios2eds/bin/gnu/H-i686-pc-linux-gnu/bin/../lib/gcc/nios2-elf/4.1.2/mno-hw-mul/libgcc.a(_si_to_df.o)
 .debug_loc     0x0000ba2d       0x8b /opt/altera/13.0sp1/nios2eds/bin/gnu/H-i686-pc-linux-gnu/bin/../lib/gcc/nios2-elf/4.1.2/mno-hw-mul/libgcc.a(_df_to_si.o)
 .debug_loc     0x0000bab8      0x103 /opt/altera/13.0sp1/nios2eds/bin/gnu/H-i686-pc-linux-gnu/bin/../lib/gcc/nios2-elf/4.1.2/mno-hw-mul/libgcc.a(_muldi3.o)
 .debug_loc     0x0000bbbb       0x8f ../../bsp/single-rtos_bsp//libucosii_bsp.a(alt_close.o)
 .debug_loc     0x0000bc4a       0xbb ../../bsp/single-rtos_bsp//libucosii_bsp.a(alt_fstat.o)
 .debug_loc     0x0000bd05       0x7d ../../bsp/single-rtos_bsp//libucosii_bsp.a(alt_isatty.o)
 .debug_loc     0x0000bd82       0x1f ../../bsp/single-rtos_bsp//libucosii_bsp.a(alt_load.o)
 .debug_loc     0x0000bda1      0x165 ../../bsp/single-rtos_bsp//libucosii_bsp.a(alt_lseek.o)
 .debug_loc     0x0000bf06       0x1f ../../bsp/single-rtos_bsp//libucosii_bsp.a(alt_main.o)
 .debug_loc     0x0000bf25      0x102 ../../bsp/single-rtos_bsp//libucosii_bsp.a(alt_read.o)
 .debug_loc     0x0000c027       0x48 ../../bsp/single-rtos_bsp//libucosii_bsp.a(alt_release_fd.o)
 .debug_loc     0x0000c06f       0x13 ../../bsp/single-rtos_bsp//libucosii_bsp.a(alt_sbrk.o)
 .debug_loc     0x0000c082      0x102 ../../bsp/single-rtos_bsp//libucosii_bsp.a(alt_write.o)
 .debug_loc     0x0000c184       0x64 ../../bsp/single-rtos_bsp//libucosii_bsp.a(alt_env_lock.o)
 .debug_loc     0x0000c1e8       0xa0 ../../bsp/single-rtos_bsp//libucosii_bsp.a(alt_malloc_lock.o)
 .debug_loc     0x0000c288      0xa93 ../../bsp/single-rtos_bsp//libucosii_bsp.a(os_core.o)
 .debug_loc     0x0000cd1b      0xc39 ../../bsp/single-rtos_bsp//libucosii_bsp.a(os_flag.o)
 .debug_loc     0x0000d954      0x32f ../../bsp/single-rtos_bsp//libucosii_bsp.a(os_mem.o)
 .debug_loc     0x0000dc83      0x816 ../../bsp/single-rtos_bsp//libucosii_bsp.a(os_q.o)
 .debug_loc     0x0000e499      0x3c4 ../../bsp/single-rtos_bsp//libucosii_bsp.a(os_sem.o)
 .debug_loc     0x0000e85d      0xb22 ../../bsp/single-rtos_bsp//libucosii_bsp.a(os_task.o)
 .debug_loc     0x0000f37f      0x2bc ../../bsp/single-rtos_bsp//libucosii_bsp.a(os_time.o)
 .debug_loc     0x0000f63b      0x8c5 ../../bsp/single-rtos_bsp//libucosii_bsp.a(os_tmr.o)
 .debug_loc     0x0000ff00       0xb7 ../../bsp/single-rtos_bsp//libucosii_bsp.a(alt_sys_init.o)
 .debug_loc     0x0000ffb7       0xbe ../../bsp/single-rtos_bsp//libucosii_bsp.a(altera_avalon_jtag_uart_fd.o)
 .debug_loc     0x00010075      0x24b ../../bsp/single-rtos_bsp//libucosii_bsp.a(altera_avalon_jtag_uart_init.o)
 .debug_loc     0x000102c0       0x7b ../../bsp/single-rtos_bsp//libucosii_bsp.a(altera_avalon_jtag_uart_ioctl.o)
 .debug_loc     0x0001033b      0x190 ../../bsp/single-rtos_bsp//libucosii_bsp.a(altera_avalon_jtag_uart_read.o)
 .debug_loc     0x000104cb      0x167 ../../bsp/single-rtos_bsp//libucosii_bsp.a(altera_avalon_jtag_uart_write.o)
 .debug_loc     0x00010632      0x14a ../../bsp/single-rtos_bsp//libucosii_bsp.a(altera_avalon_mutex.o)
 .debug_loc     0x0001077c       0xba ../../bsp/single-rtos_bsp//libucosii_bsp.a(altera_avalon_timer_sc.o)
 .debug_loc     0x00010836       0x31 ../../bsp/single-rtos_bsp//libucosii_bsp.a(alt_alarm_start.o)
 .debug_loc     0x00010867       0x5b ../../bsp/single-rtos_bsp//libucosii_bsp.a(alt_dev_llist_insert.o)
 .debug_loc     0x000108c2       0x32 ../../bsp/single-rtos_bsp//libucosii_bsp.a(alt_do_ctors.o)
 .debug_loc     0x000108f4       0x32 ../../bsp/single-rtos_bsp//libucosii_bsp.a(alt_do_dtors.o)
 .debug_loc     0x00010926       0xef ../../bsp/single-rtos_bsp//libucosii_bsp.a(alt_find_dev.o)
 .debug_loc     0x00010a15      0x15a ../../bsp/single-rtos_bsp//libucosii_bsp.a(alt_io_redirect.o)
 .debug_loc     0x00010b6f       0x52 ../../bsp/single-rtos_bsp//libucosii_bsp.a(alt_irq_register.o)
 .debug_loc     0x00010bc1      0x1fe ../../bsp/single-rtos_bsp//libucosii_bsp.a(alt_open.o)
 .debug_loc     0x00010dbf       0x71 ../../bsp/single-rtos_bsp//libucosii_bsp.a(alt_tick.o)
 .debug_loc     0x00010e30       0xc6 ../../bsp/single-rtos_bsp//libucosii_bsp.a(os_cpu_c.o)
 .debug_loc     0x00010ef6       0x9a ../../bsp/single-rtos_bsp//libucosii_bsp.a(alt_find_file.o)
 .debug_loc     0x00010f90       0x8f ../../bsp/single-rtos_bsp//libucosii_bsp.a(alt_get_fd.o)
 .debug_loc     0x0001101f       0x79 ../../bsp/single-rtos_bsp//libucosii_bsp.a(alt_irq_handler.o)
 .debug_loc     0x00011098       0x1e /opt/altera/13.0sp1/nios2eds/bin/gnu/H-i686-pc-linux-gnu/bin/../lib/gcc/nios2-elf/4.1.2/../../../../nios2-elf/lib/mno-hw-mul/libc.a(lib_a-atexit.o)
 .debug_loc     0x000110b6       0x3d /opt/altera/13.0sp1/nios2eds/bin/gnu/H-i686-pc-linux-gnu/bin/../lib/gcc/nios2-elf/4.1.2/../../../../nios2-elf/lib/mno-hw-mul/libc.a(lib_a-exit.o)
 .debug_loc     0x000110f3      0x114 /opt/altera/13.0sp1/nios2eds/bin/gnu/H-i686-pc-linux-gnu/bin/../lib/gcc/nios2-elf/4.1.2/../../../../nios2-elf/lib/mno-hw-mul/libc.a(lib_a-memcmp.o)
 .debug_loc     0x00011207      0x120 /opt/altera/13.0sp1/nios2eds/bin/gnu/H-i686-pc-linux-gnu/bin/../lib/gcc/nios2-elf/4.1.2/../../../../nios2-elf/lib/mno-hw-mul/libc.a(lib_a-__atexit.o)
 .debug_loc     0x00011327      0x1cb /opt/altera/13.0sp1/nios2eds/bin/gnu/H-i686-pc-linux-gnu/bin/../lib/gcc/nios2-elf/4.1.2/../../../../nios2-elf/lib/mno-hw-mul/libc.a(lib_a-__call_atexit.o)
 .debug_loc     0x000114f2       0x87 /opt/altera/13.0sp1/nios2eds/bin/gnu/H-i686-pc-linux-gnu/bin/../lib/gcc/nios2-elf/4.1.2/mno-hw-mul/libgcc.a(_fixunsdfsi.o)

.debug_macinfo
 *(.debug_macinfo)

.debug_weaknames
 *(.debug_weaknames)

.debug_funcnames
 *(.debug_funcnames)

.debug_typenames
 *(.debug_typenames)

.debug_varnames
 *(.debug_varnames)

.debug_alt_sim_info
                0x00000000       0x10
 *(.debug_alt_sim_info)
 .debug_alt_sim_info
                0x00000000       0x10 ../../bsp/single-rtos_bsp//obj/HAL/src/crt0.o
                0x00100000                __alt_data_end = 0x100000
                0x00100000                PROVIDE (__alt_stack_pointer, __alt_data_end)
                0x000c5088                PROVIDE (__alt_stack_limit, __alt_stack_base)
                0x000c5088                PROVIDE (__alt_heap_start, end)
                0x00100000                PROVIDE (__alt_heap_limit, 0x100000)
OUTPUT(single-rtos.elf elf32-littlenios2)

.debug_ranges   0x00000000     0x10c0
 .debug_ranges  0x00000000       0x20 ../../bsp/single-rtos_bsp//obj/HAL/src/crt0.o
 .debug_ranges  0x00000020       0x60 obj/default/src_0/cpu_0.o
 .debug_ranges  0x00000080       0x50 /opt/altera/13.0sp1/nios2eds/bin/gnu/H-i686-pc-linux-gnu/bin/../lib/gcc/nios2-elf/4.1.2/mno-hw-mul/libgcc.a(_div_df.o)
 .debug_ranges  0x000000d0       0x18 /opt/altera/13.0sp1/nios2eds/bin/gnu/H-i686-pc-linux-gnu/bin/../lib/gcc/nios2-elf/4.1.2/mno-hw-mul/libgcc.a(_usi_to_df.o)
 .debug_ranges  0x000000e8       0x28 /opt/altera/13.0sp1/nios2eds/bin/gnu/H-i686-pc-linux-gnu/bin/../lib/gcc/nios2-elf/4.1.2/mno-hw-mul/libgcc.a(_clzsi2.o)
 .debug_ranges  0x00000110       0x28 /opt/altera/13.0sp1/nios2eds/bin/gnu/H-i686-pc-linux-gnu/bin/../lib/gcc/nios2-elf/4.1.2/mno-hw-mul/libgcc.a(_pack_df.o)
 .debug_ranges  0x00000138      0x168 /opt/altera/13.0sp1/nios2eds/bin/gnu/H-i686-pc-linux-gnu/bin/../lib/gcc/nios2-elf/4.1.2/../../../../nios2-elf/lib/mno-hw-mul/libc.a(lib_a-vfprintf.o)
 .debug_ranges  0x000002a0       0x20 /opt/altera/13.0sp1/nios2eds/bin/gnu/H-i686-pc-linux-gnu/bin/../lib/gcc/nios2-elf/4.1.2/../../../../nios2-elf/lib/mno-hw-mul/libc.a(lib_a-fflush.o)
 .debug_ranges  0x000002c0       0x28 /opt/altera/13.0sp1/nios2eds/bin/gnu/H-i686-pc-linux-gnu/bin/../lib/gcc/nios2-elf/4.1.2/../../../../nios2-elf/lib/mno-hw-mul/libc.a(lib_a-fvwrite.o)
 .debug_ranges  0x000002e8       0xa0 /opt/altera/13.0sp1/nios2eds/bin/gnu/H-i686-pc-linux-gnu/bin/../lib/gcc/nios2-elf/4.1.2/../../../../nios2-elf/lib/mno-hw-mul/libc.a(lib_a-fwalk.o)
 .debug_ranges  0x00000388       0x70 /opt/altera/13.0sp1/nios2eds/bin/gnu/H-i686-pc-linux-gnu/bin/../lib/gcc/nios2-elf/4.1.2/../../../../nios2-elf/lib/mno-hw-mul/libc.a(lib_a-mallocr.o)
 .debug_ranges  0x000003f8      0x110 /opt/altera/13.0sp1/nios2eds/bin/gnu/H-i686-pc-linux-gnu/bin/../lib/gcc/nios2-elf/4.1.2/../../../../nios2-elf/lib/mno-hw-mul/libc.a(lib_a-reallocr.o)
 .debug_ranges  0x00000508       0x38 /opt/altera/13.0sp1/nios2eds/bin/gnu/H-i686-pc-linux-gnu/bin/../lib/gcc/nios2-elf/4.1.2/../../../../nios2-elf/lib/mno-hw-mul/libc.a(lib_a-callocr.o)
 .debug_ranges  0x00000540      0x190 /opt/altera/13.0sp1/nios2eds/bin/gnu/H-i686-pc-linux-gnu/bin/../lib/gcc/nios2-elf/4.1.2/mno-hw-mul/libgcc.a(_udivdi3.o)
 .debug_ranges  0x000006d0      0x1c0 /opt/altera/13.0sp1/nios2eds/bin/gnu/H-i686-pc-linux-gnu/bin/../lib/gcc/nios2-elf/4.1.2/mno-hw-mul/libgcc.a(_umoddi3.o)
 .debug_ranges  0x00000890       0x30 /opt/altera/13.0sp1/nios2eds/bin/gnu/H-i686-pc-linux-gnu/bin/../lib/gcc/nios2-elf/4.1.2/mno-hw-mul/libgcc.a(_addsub_df.o)
 .debug_ranges  0x000008c0       0x88 /opt/altera/13.0sp1/nios2eds/bin/gnu/H-i686-pc-linux-gnu/bin/../lib/gcc/nios2-elf/4.1.2/mno-hw-mul/libgcc.a(_mul_df.o)
 .debug_ranges  0x00000948       0x88 /opt/altera/13.0sp1/nios2eds/bin/gnu/H-i686-pc-linux-gnu/bin/../lib/gcc/nios2-elf/4.1.2/mno-hw-mul/libgcc.a(_muldi3.o)
 .debug_ranges  0x000009d0       0x18 ../../bsp/single-rtos_bsp//libucosii_bsp.a(alt_main.o)
 .debug_ranges  0x000009e8      0x1c8 ../../bsp/single-rtos_bsp//libucosii_bsp.a(os_core.o)
 .debug_ranges  0x00000bb0       0x18 ../../bsp/single-rtos_bsp//libucosii_bsp.a(os_mem.o)
 .debug_ranges  0x00000bc8       0x48 ../../bsp/single-rtos_bsp//libucosii_bsp.a(os_q.o)
 .debug_ranges  0x00000c10       0x48 ../../bsp/single-rtos_bsp//libucosii_bsp.a(os_sem.o)
 .debug_ranges  0x00000c58       0x60 ../../bsp/single-rtos_bsp//libucosii_bsp.a(os_task.o)
 .debug_ranges  0x00000cb8       0x30 ../../bsp/single-rtos_bsp//libucosii_bsp.a(os_tmr.o)
 .debug_ranges  0x00000ce8       0x20 ../../bsp/single-rtos_bsp//libucosii_bsp.a(alt_sys_init.o)
 .debug_ranges  0x00000d08      0x110 ../../bsp/single-rtos_bsp//libucosii_bsp.a(altera_avalon_jtag_uart_init.o)
 .debug_ranges  0x00000e18       0x58 ../../bsp/single-rtos_bsp//libucosii_bsp.a(altera_avalon_jtag_uart_read.o)
 .debug_ranges  0x00000e70       0x88 ../../bsp/single-rtos_bsp//libucosii_bsp.a(altera_avalon_jtag_uart_write.o)
 .debug_ranges  0x00000ef8       0xa0 ../../bsp/single-rtos_bsp//libucosii_bsp.a(altera_avalon_mutex.o)
 .debug_ranges  0x00000f98       0x18 ../../bsp/single-rtos_bsp//libucosii_bsp.a(altera_avalon_timer_sc.o)
 .debug_ranges  0x00000fb0       0x18 ../../bsp/single-rtos_bsp//libucosii_bsp.a(alt_dev_llist_insert.o)
 .debug_ranges  0x00000fc8       0x30 ../../bsp/single-rtos_bsp//libucosii_bsp.a(alt_open.o)
 .debug_ranges  0x00000ff8       0x40 ../../bsp/single-rtos_bsp//libucosii_bsp.a(alt_get_fd.o)
 .debug_ranges  0x00001038       0x28 ../../bsp/single-rtos_bsp//libucosii_bsp.a(alt_irq_entry.o)
 .debug_ranges  0x00001060       0x18 ../../bsp/single-rtos_bsp//libucosii_bsp.a(alt_irq_handler.o)
 .debug_ranges  0x00001078       0x30 ../../bsp/single-rtos_bsp//libucosii_bsp.a(alt_exception_entry.o)
 .debug_ranges  0x000010a8       0x18 /opt/altera/13.0sp1/nios2eds/bin/gnu/H-i686-pc-linux-gnu/bin/../lib/gcc/nios2-elf/4.1.2/../../../../nios2-elf/lib/mno-hw-mul/libc.a(lib_a-__call_atexit.o)
